Archive member included because of file (symbol)

/work/apron/buildroot/output/host/usr/lib/gcc/arm-buildroot-linux-gnueabi/4.4.7/libgcc.a(_udivsi3.o)
                              arch/arm/cpu/arm926ejs/mxs/built-in.o (__aeabi_uidiv)
/work/apron/buildroot/output/host/usr/lib/gcc/arm-buildroot-linux-gnueabi/4.4.7/libgcc.a(_divsi3.o)
                              arch/arm/cpu/arm926ejs/mxs/built-in.o (__aeabi_idiv)
/work/apron/buildroot/output/host/usr/lib/gcc/arm-buildroot-linux-gnueabi/4.4.7/libgcc.a(_lshrdi3.o)
                              common/built-in.o (__aeabi_llsr)
/work/apron/buildroot/output/host/usr/lib/gcc/arm-buildroot-linux-gnueabi/4.4.7/libgcc.a(_ashrdi3.o)
                              drivers/mtd/nand/built-in.o (__aeabi_lasr)
/work/apron/buildroot/output/host/usr/lib/gcc/arm-buildroot-linux-gnueabi/4.4.7/libgcc.a(_ashldi3.o)
                              drivers/mtd/nand/built-in.o (__aeabi_llsl)
/work/apron/buildroot/output/host/usr/lib/gcc/arm-buildroot-linux-gnueabi/4.4.7/libgcc.a(_dvmd_lnx.o)
                              /work/apron/buildroot/output/host/usr/lib/gcc/arm-buildroot-linux-gnueabi/4.4.7/libgcc.a(_udivsi3.o) (__div0)

Discarded input sections

 .data          0x0000000000000000        0x0 arch/arm/cpu/arm926ejs/start.o
 .bss           0x0000000000000000        0x0 arch/arm/cpu/arm926ejs/start.o
 .text          0x0000000000000000        0x0 arch/arm/cpu/arm926ejs/built-in.o
 .text.invalidate_dcache_all
                0x0000000000000000        0xc arch/arm/cpu/arm926ejs/built-in.o
 .data          0x0000000000000000        0x0 arch/arm/cpu/arm926ejs/built-in.o
 .bss           0x0000000000000000        0x0 arch/arm/cpu/arm926ejs/built-in.o
 .text          0x0000000000000000        0x0 arch/arm/cpu/arm926ejs/mxs/built-in.o
 .text.mxs_set_ssp_busclock
                0x0000000000000000       0xac arch/arm/cpu/arm926ejs/mxs/built-in.o
 .text.mxs_set_lcdclk
                0x0000000000000000      0x154 arch/arm/cpu/arm926ejs/mxs/built-in.o
 .text.mxs_iomux_setup_multiple_pads
                0x0000000000000000       0x38 arch/arm/cpu/arm926ejs/mxs/built-in.o
 .text.mx28_fixup_vt
                0x0000000000000000       0x28 arch/arm/cpu/arm926ejs/mxs/built-in.o
 .text.get_timer_masked
                0x0000000000000000       0x48 arch/arm/cpu/arm926ejs/mxs/built-in.o
 .rodata.CSWTCH.65
                0x0000000000000000       0x10 arch/arm/cpu/arm926ejs/mxs/built-in.o
 .data          0x0000000000000000        0x0 arch/arm/cpu/arm926ejs/mxs/built-in.o
 .bss           0x0000000000000000        0x0 arch/arm/cpu/arm926ejs/mxs/built-in.o
 .text          0x0000000000000000        0x0 arch/arm/imx-common/built-in.o
 .data          0x0000000000000000        0x0 arch/arm/imx-common/built-in.o
 .bss           0x0000000000000000        0x0 arch/arm/imx-common/built-in.o
 .text.__red_led_off
                0x0000000000000000        0x4 arch/arm/lib/built-in.o
 .text.__green_led_on
                0x0000000000000000        0x4 arch/arm/lib/built-in.o
 .text.__green_led_off
                0x0000000000000000        0x4 arch/arm/lib/built-in.o
 .text.__yellow_led_on
                0x0000000000000000        0x4 arch/arm/lib/built-in.o
 .text.__yellow_led_off
                0x0000000000000000        0x4 arch/arm/lib/built-in.o
 .text.__blue_led_on
                0x0000000000000000        0x4 arch/arm/lib/built-in.o
 .text.__blue_led_off
                0x0000000000000000        0x4 arch/arm/lib/built-in.o
 .text.__arch_cpu_init
                0x0000000000000000        0x8 arch/arm/lib/built-in.o
 .text.set_section_dcache
                0x0000000000000000       0x14 arch/arm/lib/built-in.o
 .text.__mmu_page_table_flush
                0x0000000000000000        0x4 arch/arm/lib/built-in.o
 .text.mmu_set_region_dcache_behaviour
                0x0000000000000000       0x5c arch/arm/lib/built-in.o
 .text.__flush_cache
                0x0000000000000000        0x4 arch/arm/lib/built-in.o
 .text.__flush_dcache_all
                0x0000000000000000        0xc arch/arm/lib/built-in.o
 .text.__enable_caches
                0x0000000000000000        0xc arch/arm/lib/built-in.o
 .data          0x0000000000000000        0x0 arch/arm/lib/built-in.o
 .bss           0x0000000000000000        0x0 arch/arm/lib/built-in.o
 .text          0x0000000000000000        0x0 board/freescale/mx28evk/built-in.o
 .data          0x0000000000000000        0x0 board/freescale/mx28evk/built-in.o
 .bss           0x0000000000000000        0x0 board/freescale/mx28evk/built-in.o
 .text          0x0000000000000000        0x0 common/built-in.o
 .text.bootz_setup
                0x0000000000000000       0x18 common/built-in.o
 .text.flush_dcache_all
                0x0000000000000000        0xc common/built-in.o
 .text.device_find
                0x0000000000000000       0x4c common/built-in.o
 .text.disable_ctrlc
                0x0000000000000000       0x18 common/built-in.o
 .text.dbg      0x0000000000000000        0xc common/built-in.o
 .text.fprintf  0x0000000000000000       0x5c common/built-in.o
 .text.serial_printf
                0x0000000000000000       0x58 common/built-in.o
 .text.malloc_usable_size
                0x0000000000000000       0x44 common/built-in.o
 .text.mallopt  0x0000000000000000       0x74 common/built-in.o
 .text.cfree    0x0000000000000000        0x4 common/built-in.o
 .text.pvalloc  0x0000000000000000       0x18 common/built-in.o
 .text.valloc   0x0000000000000000        0xc common/built-in.o
 .text.env_get_char_memory
                0x0000000000000000       0x24 common/built-in.o
 .text.env_get_addr
                0x0000000000000000       0x24 common/built-in.o
 .text.env_flags_parse_varaccess_from_binflags
                0x0000000000000000       0x48 common/built-in.o
 .text.of_bus_default_map
                0x0000000000000000      0x15c common/built-in.o
 .text.of_bus_default_count_cells
                0x0000000000000000       0x9c common/built-in.o
 .text.fdt_getprop_u32_default
                0x0000000000000000       0x58 common/built-in.o
 .text.fdt_set_phandle
                0x0000000000000000       0x74 common/built-in.o
 .text.fdt_set_node_status
                0x0000000000000000       0xec common/built-in.o
 .text.fdt_set_status_by_alias
                0x0000000000000000       0x2c common/built-in.o
 .text.fdt_alloc_phandle
                0x0000000000000000       0x58 common/built-in.o
 .text.fdt_create_phandle
                0x0000000000000000       0x64 common/built-in.o
 .text.of_bus_default_translate
                0x0000000000000000       0xcc common/built-in.o
 .text.fdt_del_node_and_alias
                0x0000000000000000       0x44 common/built-in.o
 .text.fdt_increase_size
                0x0000000000000000       0x30 common/built-in.o
 .text.do_fixup_by_compat
                0x0000000000000000       0x84 common/built-in.o
 .text.do_fixup_by_compat_u32
                0x0000000000000000       0x40 common/built-in.o
 .text.do_fixup_by_path_u32
                0x0000000000000000       0x40 common/built-in.o
 .text.do_fixup_by_prop
                0x0000000000000000       0x98 common/built-in.o
 .text.do_fixup_by_prop_u32
                0x0000000000000000       0x54 common/built-in.o
 .text.fdt_translate_address
                0x0000000000000000      0x2dc common/built-in.o
 .text.fdt_get_base_address
                0x0000000000000000       0xa0 common/built-in.o
 .text.fdt_verify_alias_address
                0x0000000000000000       0xe0 common/built-in.o
 .text.fdt_node_offset_by_compat_reg
                0x0000000000000000       0x8c common/built-in.o
 .text.hash_block
                0x0000000000000000       0x74 common/built-in.o
 .text.unset_local_var
                0x0000000000000000       0x9c common/built-in.o
 .text.arch_fixup_memory_node
                0x0000000000000000        0x8 common/built-in.o
 .text.get_table_entry_name
                0x0000000000000000       0x2c common/built-in.o
 .text.genimg_get_arch_name
                0x0000000000000000       0x38 common/built-in.o
 .text.genimg_get_comp_name
                0x0000000000000000       0x38 common/built-in.o
 .text.get_table_entry_id
                0x0000000000000000       0x4c common/built-in.o
 .text.genimg_get_comp_id
                0x0000000000000000       0x18 common/built-in.o
 .text.genimg_get_type_id
                0x0000000000000000       0x18 common/built-in.o
 .text.genimg_get_arch_id
                0x0000000000000000       0x18 common/built-in.o
 .text.genimg_get_os_id
                0x0000000000000000       0x18 common/built-in.o
 .text.parse_line
                0x0000000000000000       0x8c common/built-in.o
 .text.get_ram_size
                0x0000000000000000      0x110 common/built-in.o
 .text.legacy_miiphy_read
                0x0000000000000000       0x30 common/built-in.o
 .text.legacy_miiphy_write
                0x0000000000000000       0x24 common/built-in.o
 .text.mdio_get_current_dev
                0x0000000000000000       0x10 common/built-in.o
 .text.mdio_list_devices
                0x0000000000000000       0x9c common/built-in.o
 .text.mdio_phydev_for_ethname
                0x0000000000000000       0x8c common/built-in.o
 .text.miiphy_reset
                0x0000000000000000       0xac common/built-in.o
 .text.miiphy_register
                0x0000000000000000      0x10c common/built-in.o
 .text.__splash_screen_prepare
                0x0000000000000000        0x8 common/built-in.o
 .text.board_usb_init
                0x0000000000000000        0x8 common/built-in.o
 .text.usb_get_class_descriptor
                0x0000000000000000       0x6c common/built-in.o
 .text.usb_get_report
                0x0000000000000000       0x6c common/built-in.o
 .text.usb_set_idle
                0x0000000000000000       0x5c common/built-in.o
 .text.usb_set_protocol
                0x0000000000000000       0x58 common/built-in.o
 .text.usb_submit_int_msg
                0x0000000000000000        0x4 common/built-in.o
 .rodata.__FUNCTION__.5701
                0x0000000000000000       0x18 common/built-in.o
 .rodata.__FUNCTION__.4573
                0x0000000000000000       0x10 common/built-in.o
 .data          0x0000000000000000        0x0 common/built-in.o
 .data.mmap_threshold
                0x0000000000000000        0x4 common/built-in.o
 .data.of_busses
                0x0000000000000000       0x14 common/built-in.o
 .data.hash_algo
                0x0000000000000000       0x10 common/built-in.o
 .bss           0x0000000000000000        0x0 common/built-in.o
 .bss.n_mmaps_max
                0x0000000000000000        0x4 common/built-in.o
 .bss.save_addr
                0x0000000000000000        0x4 common/built-in.o
 .bss.save_size
                0x0000000000000000        0x4 common/built-in.o
 .text          0x0000000000000000        0x0 disk/built-in.o
 .data          0x0000000000000000        0x0 disk/built-in.o
 .bss           0x0000000000000000        0x0 disk/built-in.o
 .text          0x0000000000000000        0x0 drivers/built-in.o
 .data          0x0000000000000000        0x0 drivers/built-in.o
 .bss           0x0000000000000000        0x0 drivers/built-in.o
 .text          0x0000000000000000        0x0 drivers/dma/built-in.o
 .text.mxs_dma_validate_chan
                0x0000000000000000       0x30 drivers/dma/built-in.o
 .text.mxs_dma_circ_start
                0x0000000000000000       0x8c drivers/dma/built-in.o
 .data          0x0000000000000000        0x0 drivers/dma/built-in.o
 .bss           0x0000000000000000        0x0 drivers/dma/built-in.o
 .text          0x0000000000000000        0x0 drivers/gpio/built-in.o
 .data          0x0000000000000000        0x0 drivers/gpio/built-in.o
 .bss           0x0000000000000000        0x0 drivers/gpio/built-in.o
 .text          0x0000000000000000        0x0 drivers/input/built-in.o
 .text.input_tstc
                0x0000000000000000       0x44 drivers/input/built-in.o
 .text.input_getc
                0x0000000000000000       0x60 drivers/input/built-in.o
 .text.input_add_table
                0x0000000000000000       0x48 drivers/input/built-in.o
 .text.input_set_delays
                0x0000000000000000        0xc drivers/input/built-in.o
 .text.input_stdio_register
                0x0000000000000000       0x50 drivers/input/built-in.o
 .text.input_init
                0x0000000000000000       0xec drivers/input/built-in.o
 .text.sort_array_by_ordering
                0x0000000000000000       0xd8 drivers/input/built-in.o
 .text.input_send_keycodes
                0x0000000000000000      0x2f8 drivers/input/built-in.o
 .rodata.kbd_to_ansi364
                0x0000000000000000       0x20 drivers/input/built-in.o
 .rodata.kbd_plain_xlate
                0x0000000000000000       0x64 drivers/input/built-in.o
 .rodata.str1.1
                0x0000000000000000       0x16 drivers/input/built-in.o
 .rodata.CSWTCH.71
                0x0000000000000000       0x34 drivers/input/built-in.o
 .data          0x0000000000000000        0x0 drivers/input/built-in.o
 .data.kbd_ctrl_xlate
                0x0000000000000000       0x64 drivers/input/built-in.o
 .data.kbd_shift_xlate
                0x0000000000000000       0x64 drivers/input/built-in.o
 .bss           0x0000000000000000        0x0 drivers/input/built-in.o
 .comment       0x0000000000000000       0x39 drivers/input/built-in.o
 .note.GNU-stack
                0x0000000000000000        0x0 drivers/input/built-in.o
 .ARM.attributes
                0x0000000000000000       0x2b drivers/input/built-in.o
 .debug_aranges
                0x0000000000000000       0x58 drivers/input/built-in.o
 .debug_pubnames
                0x0000000000000000       0x99 drivers/input/built-in.o
 .debug_info    0x0000000000000000      0xf1a drivers/input/built-in.o
 .debug_abbrev  0x0000000000000000      0x38a drivers/input/built-in.o
 .debug_line    0x0000000000000000      0x2e1 drivers/input/built-in.o
 .debug_frame   0x0000000000000000      0x118 drivers/input/built-in.o
 .debug_str     0x0000000000000000      0x59e drivers/input/built-in.o
 .debug_loc     0x0000000000000000      0x5bc drivers/input/built-in.o
 .debug_ranges  0x0000000000000000      0x180 drivers/input/built-in.o
 .text          0x0000000000000000        0x0 drivers/mtd/built-in.o
 .text.mtd_panic_write
                0x0000000000000000       0xa8 drivers/mtd/built-in.o
 .data          0x0000000000000000        0x0 drivers/mtd/built-in.o
 .bss           0x0000000000000000        0x0 drivers/mtd/built-in.o
 .text          0x0000000000000000        0x0 drivers/mtd/nand/built-in.o
 .text.nand_bch_calculate_ecc
                0x0000000000000000        0x8 drivers/mtd/nand/built-in.o
 .text.nand_bch_correct_data
                0x0000000000000000        0x8 drivers/mtd/nand/built-in.o
 .text.nand_release
                0x0000000000000000       0x48 drivers/mtd/nand/built-in.o
 .data          0x0000000000000000        0x0 drivers/mtd/nand/built-in.o
 .bss           0x0000000000000000        0x0 drivers/mtd/nand/built-in.o
 .text          0x0000000000000000        0x0 drivers/mtd/ubi/built-in.o
 .text.ubi_get_by_major
                0x0000000000000000       0x4c drivers/mtd/ubi/built-in.o
 .text.ubi_major2num
                0x0000000000000000       0x44 drivers/mtd/ubi/built-in.o
 .text.ubi_eba_atomic_leb_change
                0x0000000000000000      0x560 drivers/mtd/ubi/built-in.o
 .text.ubi_leb_map
                0x0000000000000000       0xa4 drivers/mtd/ubi/built-in.o
 .text.ubi_leb_write
                0x0000000000000000       0xf8 drivers/mtd/ubi/built-in.o
 .text.ubi_leb_erase
                0x0000000000000000       0x7c drivers/mtd/ubi/built-in.o
 .text.ubi_leb_change
                0x0000000000000000       0xdc drivers/mtd/ubi/built-in.o
 .text.ubi_more_leb_change_data
                0x0000000000000000      0x130 drivers/mtd/ubi/built-in.o
 .text.ubi_start_leb_change
                0x0000000000000000       0xe4 drivers/mtd/ubi/built-in.o
 .text.ubi_remove_volume
                0x0000000000000000      0x130 drivers/mtd/ubi/built-in.o
 .text.ubi_thread
                0x0000000000000000       0xd0 drivers/mtd/ubi/built-in.o
 .rodata.__func__.5767
                0x0000000000000000       0x1c drivers/mtd/ubi/built-in.o
 .rodata.__func__.5393
                0x0000000000000000       0x14 drivers/mtd/ubi/built-in.o
 .rodata.__func__.5797
                0x0000000000000000        0xc drivers/mtd/ubi/built-in.o
 .data          0x0000000000000000        0x0 drivers/mtd/ubi/built-in.o
 .bss           0x0000000000000000        0x0 drivers/mtd/ubi/built-in.o
 .text          0x0000000000000000        0x0 drivers/net/built-in.o
 .text.fecmxc_register_mii_postcall
                0x0000000000000000       0x10 drivers/net/built-in.o
 .data          0x0000000000000000        0x0 drivers/net/built-in.o
 .bss           0x0000000000000000        0x0 drivers/net/built-in.o
 .text          0x0000000000000000        0x0 drivers/serial/built-in.o
 .text.serial_reinit_all
                0x0000000000000000       0x2c drivers/serial/built-in.o
 .data          0x0000000000000000        0x0 drivers/serial/built-in.o
 .bss           0x0000000000000000        0x0 drivers/serial/built-in.o
 .text          0x0000000000000000        0x0 drivers/spi/built-in.o
 .text.spi_do_alloc_slave
                0x0000000000000000       0x4c drivers/spi/built-in.o
 .text.spi_set_wordlen
                0x0000000000000000       0x34 drivers/spi/built-in.o
 .rodata.str1.1
                0x0000000000000000       0x19 drivers/spi/built-in.o
 .data          0x0000000000000000        0x0 drivers/spi/built-in.o
 .bss           0x0000000000000000        0x0 drivers/spi/built-in.o
 .comment       0x0000000000000000       0x39 drivers/spi/built-in.o
 .note.GNU-stack
                0x0000000000000000        0x0 drivers/spi/built-in.o
 .ARM.attributes
                0x0000000000000000       0x2b drivers/spi/built-in.o
 .debug_aranges
                0x0000000000000000       0x28 drivers/spi/built-in.o
 .debug_pubnames
                0x0000000000000000       0x3d drivers/spi/built-in.o
 .debug_info    0x0000000000000000      0x404 drivers/spi/built-in.o
 .debug_abbrev  0x0000000000000000      0x155 drivers/spi/built-in.o
 .debug_line    0x0000000000000000      0x141 drivers/spi/built-in.o
 .debug_frame   0x0000000000000000       0x54 drivers/spi/built-in.o
 .debug_str     0x0000000000000000      0x282 drivers/spi/built-in.o
 .debug_loc     0x0000000000000000       0xfd drivers/spi/built-in.o
 .debug_ranges  0x0000000000000000       0x20 drivers/spi/built-in.o
 .text          0x0000000000000000        0x0 drivers/usb/eth/built-in.o
 .text.is_eth_dev_on_usb_host
                0x0000000000000000       0x60 drivers/usb/eth/built-in.o
 .data          0x0000000000000000        0x0 drivers/usb/eth/built-in.o
 .bss           0x0000000000000000        0x0 drivers/usb/eth/built-in.o
 .text          0x0000000000000000        0x0 drivers/usb/host/built-in.o
 .data          0x0000000000000000        0x0 drivers/usb/host/built-in.o
 .bss           0x0000000000000000        0x0 drivers/usb/host/built-in.o
 .text          0x0000000000000000        0x0 fs/built-in.o
 .text.file_fat_read
                0x0000000000000000       0x10 fs/built-in.o
 .text.fat_register_device
                0x0000000000000000       0x84 fs/built-in.o
 .text.file_getfsname
                0x0000000000000000       0x18 fs/built-in.o
 .text.file_read
                0x0000000000000000       0xa8 fs/built-in.o
 .text.file_ls  0x0000000000000000       0x94 fs/built-in.o
 .text.file_detectfs
                0x0000000000000000       0x50 fs/built-in.o
 .text.file_cd  0x0000000000000000      0x1fc fs/built-in.o
 .text.fs_write
                0x0000000000000000       0x7c fs/built-in.o
 .text.do_save  0x0000000000000000      0x124 fs/built-in.o
 .text.ubifs_ro_mode
                0x0000000000000000       0x3c fs/built-in.o
 .text.ubifs_prepare_node
                0x0000000000000000      0x194 fs/built-in.o
 .text.ubifs_ensure_cat
                0x0000000000000000       0x48 fs/built-in.o
 .text.ubifs_fast_find_free
                0x0000000000000000       0x18 fs/built-in.o
 .text.ubifs_fast_find_empty
                0x0000000000000000       0x14 fs/built-in.o
 .text.ubifs_fast_find_freeable
                0x0000000000000000       0x14 fs/built-in.o
 .text.ubifs_fast_find_frdi_idx
                0x0000000000000000       0x14 fs/built-in.o
 .text.ubifs_read_one_lp
                0x0000000000000000       0x30 fs/built-in.o
 .text.ubifs_get_lp_stats
                0x0000000000000000       0x18 fs/built-in.o
 .text.ubifs_change_one_lp
                0x0000000000000000       0x60 fs/built-in.o
 .text.ubifs_add_lpt_dirt
                0x0000000000000000       0x30 fs/built-in.o
 .text.ubifs_lpt_lookup
                0x0000000000000000       0xa4 fs/built-in.o
 .text.ubifs_clean_lebs
                0x0000000000000000      0x248 fs/built-in.o
 .text.recover_head
                0x0000000000000000      0x124 fs/built-in.o
 .text.ubifs_recover_inl_heads
                0x0000000000000000       0x3c fs/built-in.o
 .text.ubifs_write_rcvrd_mst_node
                0x0000000000000000      0x160 fs/built-in.o
 .text.destroy_old_idx
                0x0000000000000000       0x60 fs/built-in.o
 .text.ubifs_tnc_get_bu_keys
                0x0000000000000000      0x250 fs/built-in.o
 .text.ubifs_tnc_lookup_nm
                0x0000000000000000       0xe0 fs/built-in.o
 .text.ubifs_tnc_bulk_read
                0x0000000000000000      0x20c fs/built-in.o
 .text.ubifs_tnc_replace
                0x0000000000000000      0x2d4 fs/built-in.o
 .text.ubifs_tnc_postorder_first
                0x0000000000000000       0x4c fs/built-in.o
 .text.ubifs_tnc_postorder_next
                0x0000000000000000       0x54 fs/built-in.o
 .text.ubifs_tnc_levelorder_next
                0x0000000000000000      0x170 fs/built-in.o
 .rodata.filesystems
                0x0000000000000000       0x18 fs/built-in.o
 .rodata.__func__.6914
                0x0000000000000000        0xc fs/built-in.o
 .rodata.__func__.6810
                0x0000000000000000       0x10 fs/built-in.o
 .rodata.__func__.7494
                0x0000000000000000       0x18 fs/built-in.o
 .rodata.__func__.7990
                0x0000000000000000       0x14 fs/built-in.o
 .rodata.__func__.8025
                0x0000000000000000       0x14 fs/built-in.o
 .data          0x0000000000000000        0x0 fs/built-in.o
 .data.file_cwd
                0x0000000000000000      0x200 fs/built-in.o
 .data.current_filesystem
                0x0000000000000000        0x4 fs/built-in.o
 .bss           0x0000000000000000        0x0 fs/built-in.o
 .text          0x0000000000000000        0x0 lib/built-in.o
 .text.crc32_wd_buf
                0x0000000000000000       0x4c lib/built-in.o
 .text.crc7     0x0000000000000000       0x34 lib/built-in.o
 .text.crc8     0x0000000000000000       0x54 lib/built-in.o
 .text.display_options
                0x0000000000000000       0x20 lib/built-in.o
 .text.initcall_run_list
                0x0000000000000000       0x38 lib/built-in.o
 .text.ldiv     0x0000000000000000       0x50 lib/built-in.o
 .text.skip_spaces
                0x0000000000000000       0x24 lib/built-in.o
 .text.lmb_dump_all
                0x0000000000000000        0x4 lib/built-in.o
 .text.lmb_overlaps_region
                0x0000000000000000       0x54 lib/built-in.o
 .text.lmb_is_reserved
                0x0000000000000000       0x60 lib/built-in.o
 .text.__arch_lmb_reserve
                0x0000000000000000        0x4 lib/built-in.o
 .text.rb_prev  0x0000000000000000       0x5c lib/built-in.o
 .text.rb_replace_node
                0x0000000000000000       0x60 lib/built-in.o
 .text.strncasecmp
                0x0000000000000000       0x7c lib/built-in.o
 .text.strcasecmp
                0x0000000000000000        0x8 lib/built-in.o
 .text.strrchr  0x0000000000000000       0x3c lib/built-in.o
 .text.strspn   0x0000000000000000       0x44 lib/built-in.o
 .text.strtok   0x0000000000000000       0xcc lib/built-in.o
 .text.strswab  0x0000000000000000       0x48 lib/built-in.o
 .text.bcopy    0x0000000000000000       0x28 lib/built-in.o
 .text.memscan  0x0000000000000000       0x30 lib/built-in.o
 .text.strmhz   0x0000000000000000       0x6c lib/built-in.o
 .text.timer_init
                0x0000000000000000        0x8 lib/built-in.o
 .text.tick_to_time
                0x0000000000000000       0x54 lib/built-in.o
 .text.get_ticks
                0x0000000000000000       0x3c lib/built-in.o
 .text.__udelay
                0x0000000000000000       0x74 lib/built-in.o
 .text.timer_get_us
                0x0000000000000000       0x24 lib/built-in.o
 .text.get_timer
                0x0000000000000000       0x18 lib/built-in.o
 .text.ustrtoul
                0x0000000000000000       0x74 lib/built-in.o
 .text.ustrtoull
                0x0000000000000000       0x8c lib/built-in.o
 .text.__assert_fail
                0x0000000000000000       0x14 lib/built-in.o
 .text.print_grouped_ull
                0x0000000000000000       0x90 lib/built-in.o
 .text.inflateInit_
                0x0000000000000000       0x10 lib/built-in.o
 .rodata.crc7_syndrome_table
                0x0000000000000000      0x100 lib/built-in.o
 .rodata.z_errmsg
                0x0000000000000000       0x28 lib/built-in.o
 .data          0x0000000000000000        0x0 lib/built-in.o
 .bss           0x0000000000000000        0x0 lib/built-in.o
 .bss.___strtok
                0x0000000000000000        0x4 lib/built-in.o
 .text          0x0000000000000000        0x0 lib/libfdt/built-in.o
 .text.fdt_next_subnode
                0x0000000000000000       0x4c lib/libfdt/built-in.o
 .text.fdt_first_subnode
                0x0000000000000000       0x30 lib/libfdt/built-in.o
 .text.fdt_create_empty_tree
                0x0000000000000000       0x74 lib/libfdt/built-in.o
 .text.fdt_parent_offset
                0x0000000000000000       0x30 lib/libfdt/built-in.o
 .text.fdt_stringlist_contains
                0x0000000000000000       0x7c lib/libfdt/built-in.o
 .text.fdt_getprop_by_offset
                0x0000000000000000       0x58 lib/libfdt/built-in.o
 .text.fdt_node_check_compatible
                0x0000000000000000       0x3c lib/libfdt/built-in.o
 .text.fdt_node_offset_by_compatible
                0x0000000000000000       0x7c lib/libfdt/built-in.o
 .text.fdt_node_offset_by_prop_value
                0x0000000000000000       0xa0 lib/libfdt/built-in.o
 .text.fdt_get_phandle
                0x0000000000000000       0x84 lib/libfdt/built-in.o
 .text.fdt_node_offset_by_phandle
                0x0000000000000000       0x70 lib/libfdt/built-in.o
 .text.fdt_get_path
                0x0000000000000000      0x140 lib/libfdt/built-in.o
 .text.fdt_get_alias
                0x0000000000000000       0x28 lib/libfdt/built-in.o
 .text.fdt_subnode_offset
                0x0000000000000000       0x30 lib/libfdt/built-in.o
 .text.fdt_pack
                0x0000000000000000       0xac lib/libfdt/built-in.o
 .text.fdt_appendprop
                0x0000000000000000       0xf8 lib/libfdt/built-in.o
 .text.fdt_set_name
                0x0000000000000000       0x88 lib/libfdt/built-in.o
 .text._fdt_sw_check_header
                0x0000000000000000       0x34 lib/libfdt/built-in.o
 .text._fdt_grab_space
                0x0000000000000000       0xb8 lib/libfdt/built-in.o
 .text.fdt_end_node
                0x0000000000000000       0x38 lib/libfdt/built-in.o
 .text.fdt_add_reservemap_entry
                0x0000000000000000      0x180 lib/libfdt/built-in.o
 .text.fdt_finish_reservemap
                0x0000000000000000       0x20 lib/libfdt/built-in.o
 .text.fdt_finish
                0x0000000000000000      0x1e8 lib/libfdt/built-in.o
 .text.fdt_begin_node
                0x0000000000000000       0x64 lib/libfdt/built-in.o
 .text.fdt_property
                0x0000000000000000      0x1dc lib/libfdt/built-in.o
 .text.fdt_create
                0x0000000000000000       0x74 lib/libfdt/built-in.o
 .text.fdt_find_regions
                0x0000000000000000      0x40c lib/libfdt/built-in.o
 .text.fdt_nop_node
                0x0000000000000000       0x50 lib/libfdt/built-in.o
 .text.fdt_nop_property
                0x0000000000000000       0x40 lib/libfdt/built-in.o
 .text.fdt_setprop_inplace
                0x0000000000000000       0x40 lib/libfdt/built-in.o
 .data          0x0000000000000000        0x0 lib/libfdt/built-in.o
 .bss           0x0000000000000000        0x0 lib/libfdt/built-in.o
 .text          0x0000000000000000        0x0 net/built-in.o
 .text.net_get_udp_handler
                0x0000000000000000       0x10 net/built-in.o
 .text.net_set_arp_handler
                0x0000000000000000       0x20 net/built-in.o
 .text.VLAN_to_string
                0x0000000000000000       0x4c net/built-in.o
 .text.random_port
                0x0000000000000000       0x1c net/built-in.o
 .data          0x0000000000000000        0x0 net/built-in.o
 .data.TftpRRQTimeoutMSecs
                0x0000000000000000        0x4 net/built-in.o
 .bss           0x0000000000000000        0x0 net/built-in.o
 .bss.net_busy_flag
                0x0000000000000000        0x4 net/built-in.o
 .text          0x0000000000000000        0x0 /work/apron/iMX/linux/ltib/sources/u-boot-imx/arch/arm/lib/eabi_compat.o
 .data          0x0000000000000000        0x0 /work/apron/iMX/linux/ltib/sources/u-boot-imx/arch/arm/lib/eabi_compat.o
 .bss           0x0000000000000000        0x0 /work/apron/iMX/linux/ltib/sources/u-boot-imx/arch/arm/lib/eabi_compat.o
 .text.__aeabi_unwind_cpp_pr0
                0x0000000000000000        0x4 /work/apron/iMX/linux/ltib/sources/u-boot-imx/arch/arm/lib/eabi_compat.o
 .text.__aeabi_unwind_cpp_pr1
                0x0000000000000000        0x4 /work/apron/iMX/linux/ltib/sources/u-boot-imx/arch/arm/lib/eabi_compat.o
 .data          0x0000000000000000        0x0 /work/apron/buildroot/output/host/usr/lib/gcc/arm-buildroot-linux-gnueabi/4.4.7/libgcc.a(_udivsi3.o)
 .bss           0x0000000000000000        0x0 /work/apron/buildroot/output/host/usr/lib/gcc/arm-buildroot-linux-gnueabi/4.4.7/libgcc.a(_udivsi3.o)
 .data          0x0000000000000000        0x0 /work/apron/buildroot/output/host/usr/lib/gcc/arm-buildroot-linux-gnueabi/4.4.7/libgcc.a(_divsi3.o)
 .bss           0x0000000000000000        0x0 /work/apron/buildroot/output/host/usr/lib/gcc/arm-buildroot-linux-gnueabi/4.4.7/libgcc.a(_divsi3.o)
 .data          0x0000000000000000        0x0 /work/apron/buildroot/output/host/usr/lib/gcc/arm-buildroot-linux-gnueabi/4.4.7/libgcc.a(_lshrdi3.o)
 .bss           0x0000000000000000        0x0 /work/apron/buildroot/output/host/usr/lib/gcc/arm-buildroot-linux-gnueabi/4.4.7/libgcc.a(_lshrdi3.o)
 .data          0x0000000000000000        0x0 /work/apron/buildroot/output/host/usr/lib/gcc/arm-buildroot-linux-gnueabi/4.4.7/libgcc.a(_ashrdi3.o)
 .bss           0x0000000000000000        0x0 /work/apron/buildroot/output/host/usr/lib/gcc/arm-buildroot-linux-gnueabi/4.4.7/libgcc.a(_ashrdi3.o)
 .data          0x0000000000000000        0x0 /work/apron/buildroot/output/host/usr/lib/gcc/arm-buildroot-linux-gnueabi/4.4.7/libgcc.a(_ashldi3.o)
 .bss           0x0000000000000000        0x0 /work/apron/buildroot/output/host/usr/lib/gcc/arm-buildroot-linux-gnueabi/4.4.7/libgcc.a(_ashldi3.o)
 .data          0x0000000000000000        0x0 /work/apron/buildroot/output/host/usr/lib/gcc/arm-buildroot-linux-gnueabi/4.4.7/libgcc.a(_dvmd_lnx.o)
 .bss           0x0000000000000000        0x0 /work/apron/buildroot/output/host/usr/lib/gcc/arm-buildroot-linux-gnueabi/4.4.7/libgcc.a(_dvmd_lnx.o)

Memory Configuration

Name             Origin             Length             Attributes
*default*        0x0000000000000000 0xffffffffffffffff

Linker script and memory map

                0x0000000000000000                . = 0x0
                0x0000000000000000                . = ALIGN (0x4)

.text           0x0000000040000100    0x49a0c
 *(.__image_copy_start)
 .__image_copy_start
                0x0000000040000100        0x0 arch/arm/lib/built-in.o
                0x0000000040000100                __image_copy_start
 arch/arm/cpu/arm926ejs/start.o(.text*)
 .text          0x0000000040000100      0x360 arch/arm/cpu/arm926ejs/start.o
                0x0000000040000100                _start
                0x0000000040000140                _TEXT_BASE
                0x0000000040000144                _bss_start_ofs
                0x0000000040000148                _bss_end_ofs
                0x000000004000014c                _end_ofs
                0x0000000040000150                IRQ_STACK_START_IN
                0x000000004000016c                c_runtime_cpu_setup
 *(.text*)
 .text.flush_dcache_all
                0x0000000040000460       0x14 arch/arm/cpu/arm926ejs/built-in.o
                0x0000000040000460                flush_dcache_all
 .text.invalidate_dcache_range
                0x0000000040000474       0x28 arch/arm/cpu/arm926ejs/built-in.o
                0x0000000040000474                invalidate_dcache_range
 .text.flush_dcache_range
                0x000000004000049c       0x30 arch/arm/cpu/arm926ejs/built-in.o
                0x000000004000049c                flush_dcache_range
 .text.flush_cache
                0x00000000400004cc       0x34 arch/arm/cpu/arm926ejs/built-in.o
                0x00000000400004cc                flush_cache
 .text.__l2_cache_disable
                0x0000000040000500        0x4 arch/arm/cpu/arm926ejs/built-in.o
                0x0000000040000500                l2_cache_disable
                0x0000000040000500                __l2_cache_disable
 .text.cleanup_before_linux
                0x0000000040000504       0x24 arch/arm/cpu/arm926ejs/built-in.o
                0x0000000040000504                cleanup_before_linux
 .text.mxs_get_pclk
                0x0000000040000528       0x7c arch/arm/cpu/arm926ejs/mxs/built-in.o
 .text.mxs_set_ioclk
                0x00000000400005a4       0x68 arch/arm/cpu/arm926ejs/mxs/built-in.o
                0x00000000400005a4                mxs_set_ioclk
 .text.mxs_set_sspclk
                0x000000004000060c       0xe8 arch/arm/cpu/arm926ejs/mxs/built-in.o
                0x000000004000060c                mxs_set_sspclk
 .text.mxs_get_sspclk
                0x00000000400006f4       0x7c arch/arm/cpu/arm926ejs/mxs/built-in.o
 .text.mxc_get_clock
                0x0000000040000770      0x184 arch/arm/cpu/arm926ejs/mxs/built-in.o
                0x0000000040000770                mxc_get_clock
 .text.mxs_iomux_setup_pad
                0x00000000400008f4      0x108 arch/arm/cpu/arm926ejs/mxs/built-in.o
                0x00000000400008f4                mxs_iomux_setup_pad
 .text.lowlevel_init
                0x00000000400009fc        0x4 arch/arm/cpu/arm926ejs/mxs/built-in.o
                0x00000000400009fc                lowlevel_init
 .text.reset_cpu
                0x0000000040000a00       0x30 arch/arm/cpu/arm926ejs/mxs/built-in.o
                0x0000000040000a00                reset_cpu
 .text.arch_misc_init
                0x0000000040000a30       0x30 arch/arm/cpu/arm926ejs/mxs/built-in.o
                0x0000000040000a30                arch_misc_init
 .text.mx28_adjust_mac
                0x0000000040000a60       0x24 arch/arm/cpu/arm926ejs/mxs/built-in.o
                0x0000000040000a60                mx28_adjust_mac
 .text.mxs_dram_init
                0x0000000040000a84       0x30 arch/arm/cpu/arm926ejs/mxs/built-in.o
                0x0000000040000a84                mxs_dram_init
 .text.imx_get_mac_from_fuse
                0x0000000040000ab4       0x94 arch/arm/cpu/arm926ejs/mxs/built-in.o
                0x0000000040000ab4                imx_get_mac_from_fuse
 .text.cpu_eth_init
                0x0000000040000b48       0x54 arch/arm/cpu/arm926ejs/mxs/built-in.o
                0x0000000040000b48                cpu_eth_init
 .text.do_mx28_showclocks
                0x0000000040000b9c       0x88 arch/arm/cpu/arm926ejs/mxs/built-in.o
                0x0000000040000b9c                do_mx28_showclocks
 .text.print_cpuinfo
                0x0000000040000c24       0xf0 arch/arm/cpu/arm926ejs/mxs/built-in.o
                0x0000000040000c24                print_cpuinfo
 .text.arch_cpu_init
                0x0000000040000d14       0x74 arch/arm/cpu/arm926ejs/mxs/built-in.o
                0x0000000040000d14                arch_cpu_init
 .text.enable_caches
                0x0000000040000d88       0x10 arch/arm/cpu/arm926ejs/mxs/built-in.o
                0x0000000040000d88                enable_caches
 .text.get_ticks
                0x0000000040000d98       0x4c arch/arm/cpu/arm926ejs/mxs/built-in.o
                0x0000000040000d98                get_ticks
 .text.get_timer
                0x0000000040000de4       0x50 arch/arm/cpu/arm926ejs/mxs/built-in.o
                0x0000000040000de4                get_timer
 .text.__udelay
                0x0000000040000e34       0x44 arch/arm/cpu/arm926ejs/mxs/built-in.o
                0x0000000040000e34                __udelay
 .text.get_tbclk
                0x0000000040000e78        0x8 arch/arm/cpu/arm926ejs/mxs/built-in.o
                0x0000000040000e78                get_tbclk
 .text.timer_init
                0x0000000040000e80       0x3c arch/arm/cpu/arm926ejs/mxs/built-in.o
                0x0000000040000e80                timer_init
 .text.mxs_wait_mask_clr
                0x0000000040000ebc       0x3c arch/arm/imx-common/built-in.o
                0x0000000040000ebc                mxs_wait_mask_clr
 .text.mxs_wait_mask_set
                0x0000000040000ef8       0x40 arch/arm/imx-common/built-in.o
                0x0000000040000ef8                mxs_wait_mask_set
 .text.mxs_reset_block
                0x0000000040000f38       0x90 arch/arm/imx-common/built-in.o
                0x0000000040000f38                mxs_reset_block
 .text          0x0000000040000fc8       0xe8 arch/arm/lib/built-in.o
                0x0000000040000fc8                _main
                0x000000004000104c                relocate_code
 .text.__coloured_LED_init
                0x00000000400010b0        0x4 arch/arm/lib/built-in.o
                0x00000000400010b0                coloured_LED_init
                0x00000000400010b0                __coloured_LED_init
 .text.__red_led_on
                0x00000000400010b4        0x4 arch/arm/lib/built-in.o
                0x00000000400010b4                __red_led_on
                0x00000000400010b4                red_led_on
 .text.__dram_init_banksize
                0x00000000400010b8       0x1c arch/arm/lib/built-in.o
                0x00000000400010b8                __dram_init_banksize
                0x00000000400010b8                dram_init_banksize
 .text.__power_init_board
                0x00000000400010d4        0x8 arch/arm/lib/built-in.o
                0x00000000400010d4                __power_init_board
                0x00000000400010d4                power_init_board
 .text.display_banner
                0x00000000400010dc       0x20 arch/arm/lib/built-in.o
 .text.init_baudrate
                0x00000000400010fc       0x2c arch/arm/lib/built-in.o
 .text.mark_bootstage
                0x0000000040001128       0x14 arch/arm/lib/built-in.o
 .text.board_init_r
                0x000000004000113c       0xbc arch/arm/lib/built-in.o
                0x000000004000113c                board_init_r
 .text.board_init_f
                0x00000000400011f8      0x138 arch/arm/lib/built-in.o
                0x00000000400011f8                board_init_f
 .text.arch_fixup_memory_node
                0x0000000040001330       0x3c arch/arm/lib/built-in.o
                0x0000000040001330                arch_fixup_memory_node
 .text.setup_board_tags
                0x000000004000136c        0x4 arch/arm/lib/built-in.o
                0x000000004000136c                setup_board_tags
 .text.boot_jump_vxworks
                0x0000000040001370       0x18 arch/arm/lib/built-in.o
                0x0000000040001370                boot_jump_vxworks
 .text.boot_prep_vxworks
                0x0000000040001388       0x4c arch/arm/lib/built-in.o
                0x0000000040001388                boot_prep_vxworks
 .text.bootz_setup
                0x00000000400013d4       0x5c arch/arm/lib/built-in.o
                0x00000000400013d4                bootz_setup
 .text.boot_prep_linux
                0x0000000040001430      0x140 arch/arm/lib/built-in.o
 .text.boot_jump_linux
                0x0000000040001570       0xb4 arch/arm/lib/built-in.o
 .text.do_bootm_linux
                0x0000000040001624       0x64 arch/arm/lib/built-in.o
                0x0000000040001624                do_bootm_linux
 .text.arch_lmb_reserve
                0x0000000040001688       0x24 arch/arm/lib/built-in.o
                0x0000000040001688                arch_lmb_reserve
 .text.__arm_init_before_mmu
                0x00000000400016ac        0x4 arch/arm/lib/built-in.o
                0x00000000400016ac                arm_init_before_mmu
                0x00000000400016ac                __arm_init_before_mmu
 .text.arm_init_domains
                0x00000000400016b0        0x4 arch/arm/lib/built-in.o
                0x00000000400016b0                arm_init_domains
 .text.dram_bank_mmu_setup
                0x00000000400016b4       0x58 arch/arm/lib/built-in.o
                0x00000000400016b4                dram_bank_mmu_setup
 .text.icache_status
                0x000000004000170c       0x10 arch/arm/lib/built-in.o
                0x000000004000170c                icache_status
 .text.dcache_status
                0x000000004000171c       0x10 arch/arm/lib/built-in.o
                0x000000004000171c                dcache_status
 .text.cache_disable
                0x000000004000172c       0x8c arch/arm/lib/built-in.o
 .text.dcache_disable
                0x00000000400017b8        0x8 arch/arm/lib/built-in.o
                0x00000000400017b8                dcache_disable
 .text.icache_disable
                0x00000000400017c0        0x8 arch/arm/lib/built-in.o
                0x00000000400017c0                icache_disable
 .text.cache_enable
                0x00000000400017c8       0xcc arch/arm/lib/built-in.o
 .text.icache_enable
                0x0000000040001894        0x8 arch/arm/lib/built-in.o
                0x0000000040001894                icache_enable
 .text.dcache_enable
                0x000000004000189c        0x8 arch/arm/lib/built-in.o
                0x000000004000189c                dcache_enable
 .text.interrupt_init
                0x00000000400018a4       0x1c arch/arm/lib/built-in.o
                0x00000000400018a4                interrupt_init
 .text.enable_interrupts
                0x00000000400018c0        0x4 arch/arm/lib/built-in.o
                0x00000000400018c0                enable_interrupts
 .text.disable_interrupts
                0x00000000400018c4        0x8 arch/arm/lib/built-in.o
                0x00000000400018c4                disable_interrupts
 .text.show_regs
                0x00000000400018cc      0x140 arch/arm/lib/built-in.o
                0x00000000400018cc                show_regs
 .text.bad_mode
                0x0000000040001a0c       0x10 arch/arm/lib/built-in.o
                0x0000000040001a0c                bad_mode
 .text.do_irq   0x0000000040001a1c       0x24 arch/arm/lib/built-in.o
                0x0000000040001a1c                do_irq
 .text.do_fiq   0x0000000040001a40       0x24 arch/arm/lib/built-in.o
                0x0000000040001a40                do_fiq
 .text.do_not_used
                0x0000000040001a64       0x24 arch/arm/lib/built-in.o
                0x0000000040001a64                do_not_used
 .text.do_data_abort
                0x0000000040001a88       0x24 arch/arm/lib/built-in.o
                0x0000000040001a88                do_data_abort
 .text.do_prefetch_abort
                0x0000000040001aac       0x24 arch/arm/lib/built-in.o
                0x0000000040001aac                do_prefetch_abort
 .text.do_software_interrupt
                0x0000000040001ad0       0x24 arch/arm/lib/built-in.o
                0x0000000040001ad0                do_software_interrupt
 .text.do_undefined_instruction
                0x0000000040001af4       0x24 arch/arm/lib/built-in.o
                0x0000000040001af4                do_undefined_instruction
 .text.do_reset
                0x0000000040001b18       0x30 arch/arm/lib/built-in.o
                0x0000000040001b18                do_reset
 .text.board_init
                0x0000000040001b48       0x18 board/freescale/mx28evk/built-in.o
                0x0000000040001b48                board_init
 .text.board_eth_init
                0x0000000040001b60       0xb0 board/freescale/mx28evk/built-in.o
                0x0000000040001b60                board_eth_init
 .text.dram_init
                0x0000000040001c10        0x4 board/freescale/mx28evk/built-in.o
                0x0000000040001c10                dram_init
 .text.board_early_init_f
                0x0000000040001c14       0x7c board/freescale/mx28evk/built-in.o
                0x0000000040001c14                board_early_init_f
 .text.do_bdinfo
                0x0000000040001c90      0x1a8 common/built-in.o
                0x0000000040001c90                do_bdinfo
 .text.do_go_exec
                0x0000000040001e38       0x18 common/built-in.o
                0x0000000040001e38                do_go_exec
 .text.do_go    0x0000000040001e50       0x70 common/built-in.o
 .text.__arch_preboot_os
                0x0000000040001ec0        0x4 common/built-in.o
                0x0000000040001ec0                arch_preboot_os
 .text.image_info
                0x0000000040001ec4       0xe4 common/built-in.o
 .text.do_iminfo
                0x0000000040001fa8       0x60 common/built-in.o
 .text.bootm_find_ramdisk
                0x0000000040002008       0x48 common/built-in.o
 .text.bootm_find_fdt
                0x0000000040002050       0x5c common/built-in.o
 .text.copy_args
                0x00000000400020ac       0x54 common/built-in.o
 .text.do_bootm_plan9
                0x0000000040002100       0xa0 common/built-in.o
 .text.do_bootm_rtems
                0x00000000400021a0       0x3c common/built-in.o
 .text.do_bootm_standalone
                0x00000000400021dc       0x7c common/built-in.o
 .text.do_bootm_netbsd
                0x0000000040002258       0xf0 common/built-in.o
 .text.do_bootvx_fdt
                0x0000000040002348      0x104 common/built-in.o
                0x0000000040002348                do_bootvx_fdt
 .text.do_bootm_vxworks
                0x000000004000244c       0x20 common/built-in.o
 .text.do_bootd
                0x000000004000246c       0x24 common/built-in.o
                0x000000004000246c                do_bootd
 .text.T.170    0x0000000040002490      0x848 common/built-in.o
 .text.do_bootm
                0x0000000040002cd8       0xd8 common/built-in.o
                0x0000000040002cd8                do_bootm
 .text.bootm_maybe_autostart
                0x0000000040002db0       0x74 common/built-in.o
                0x0000000040002db0                bootm_maybe_autostart
 .text.do_bootz
                0x0000000040002e24      0x104 common/built-in.o
                0x0000000040002e24                do_bootz
 .text.parse_argv
                0x0000000040002f28       0x58 common/built-in.o
 .text.do_dcache
                0x0000000040002f80       0x8c common/built-in.o
                0x0000000040002f80                do_dcache
 .text.invalidate_icache_all
                0x000000004000300c        0xc common/built-in.o
                0x000000004000300c                invalidate_icache_all
 .text.do_icache
                0x0000000040003018       0x8c common/built-in.o
                0x0000000040003018                do_icache
 .text.do_coninfo
                0x00000000400030a4       0xe0 common/built-in.o
 .text.mk_date  0x0000000040003184      0x288 common/built-in.o
                0x0000000040003184                mk_date
 .text.do_date  0x000000004000340c      0x118 common/built-in.o
 .text.common_diskboot
                0x0000000040003524      0x254 common/built-in.o
                0x0000000040003524                common_diskboot
 .text.do_echo  0x0000000040003778       0xbc common/built-in.o
 .text.do_exit  0x0000000040003834       0x30 common/built-in.o
 .text.do_fat_fsinfo
                0x0000000040003864       0x94 common/built-in.o
 .text.do_fat_ls
                0x00000000400038f8       0x14 common/built-in.o
 .text.do_fat_fsload
                0x000000004000390c       0x14 common/built-in.o
                0x000000004000390c                do_fat_fsload
 .text.is_printable_string
                0x0000000040003920       0x94 common/built-in.o
 .text.fdt_valid
                0x00000000400039b4       0xfc common/built-in.o
 .text.print_data
                0x0000000040003ab0      0x188 common/built-in.o
 .text.set_working_fdt_addr
                0x0000000040003c38       0x20 common/built-in.o
                0x0000000040003c38                set_working_fdt_addr
 .text.do_fdt   0x0000000040003c58     0x101c common/built-in.o
 .text.do_gpio  0x0000000040004c74      0x120 common/built-in.o
 .text.do_help  0x0000000040004d94       0x48 common/built-in.o
 .text.evalexp  0x0000000040004ddc       0x6c common/built-in.o
 .text.binary_test
                0x0000000040004e48      0x1e8 common/built-in.o
 .text.do_itest
                0x0000000040005030       0x94 common/built-in.o
 .text.bin_data_init
                0x00000000400050c4       0x2c common/built-in.o
 .text.bin_data_char
                0x00000000400050f0       0x28 common/built-in.o
 .text.load_serial_ymodem
                0x0000000040005118       0xe4 common/built-in.o
 .text.getcxmodem
                0x00000000400051fc       0x20 common/built-in.o
 .text.load_serial
                0x000000004000521c      0x208 common/built-in.o
 .text.do_load_serial
                0x0000000040005424       0xe0 common/built-in.o
 .text.T.106    0x0000000040005504       0x58 common/built-in.o
 .text.do_load_serial_bin
                0x000000004000555c      0x908 common/built-in.o
 .text.do_mem_loop
                0x0000000040005e64       0xf4 common/built-in.o
 .text.do_mem_mw
                0x0000000040005f58       0xb8 common/built-in.o
 .text.do_mem_base
                0x0000000040006010       0x44 common/built-in.o
 .text.do_mem_cmp
                0x0000000040006054      0x150 common/built-in.o
 .text.do_mem_crc
                0x00000000400061a4       0x3c common/built-in.o
 .text.do_mem_cp
                0x00000000400061e0       0xcc common/built-in.o
 .text.mod_mem  0x00000000400062ac      0x164 common/built-in.o
 .text.do_mem_nm
                0x0000000040006410       0x20 common/built-in.o
 .text.do_mem_mm
                0x0000000040006430       0x20 common/built-in.o
 .text.do_mem_md
                0x0000000040006450       0xe0 common/built-in.o
 .text.extract_range
                0x0000000040006530       0x50 common/built-in.o
 .text.do_mii   0x0000000040006580      0x7a8 common/built-in.o
 .text.do_sleep
                0x0000000040006d28       0x70 common/built-in.o
 .text.mtd_part_info
                0x0000000040006d98       0x94 common/built-in.o
 .text.memsize_format
                0x0000000040006e2c       0xa4 common/built-in.o
 .text.index_partitions
                0x0000000040006ed0       0xb8 common/built-in.o
 .text.current_save
                0x0000000040006f88       0xbc common/built-in.o
 .text.part_sort_add
                0x0000000040007044      0x168 common/built-in.o
 .text.device_del
                0x00000000400071ac       0xbc common/built-in.o
 .text.memsize_parse
                0x0000000040007268       0x80 common/built-in.o
 .text.get_mtd_info
                0x00000000400072e8       0x80 common/built-in.o
 .text.part_validate
                0x0000000040007368      0x36c common/built-in.o
 .text.device_parse
                0x00000000400076d4      0x5ac common/built-in.o
 .text.mtd_id_parse
                0x0000000040007c80      0x10c common/built-in.o
                0x0000000040007c80                mtd_id_parse
 .text.find_dev_and_part
                0x0000000040007d8c      0x1f0 common/built-in.o
                0x0000000040007d8c                find_dev_and_part
 .text.T.218    0x0000000040007f7c       0x9c common/built-in.o
 .text.mtd_devices_init
                0x0000000040008018       0x2c common/built-in.o
 .text.mtdparts_init
                0x0000000040008044      0x6dc common/built-in.o
                0x0000000040008044                mtdparts_init
 .text.do_chpart
                0x0000000040008720       0xd0 common/built-in.o
 .text.T.217    0x00000000400087f0      0x2f0 common/built-in.o
 .text.do_mtdparts
                0x0000000040008ae0      0x620 common/built-in.o
 .text.set_dev  0x0000000040009100       0x70 common/built-in.o
 .text.nand_load_image
                0x0000000040009170      0x1d0 common/built-in.o
 .text.do_nandboot
                0x0000000040009340      0x258 common/built-in.o
 .text.nand_print_and_set_info
                0x0000000040009598       0xbc common/built-in.o
 .text.arg_off  0x0000000040009654      0x124 common/built-in.o
 .text.arg_off_size
                0x0000000040009778      0x174 common/built-in.o
 .text.do_nand  0x00000000400098ec      0xca8 common/built-in.o
 .text.do_ping  0x000000004000a594       0x74 common/built-in.o
 .text.netboot_common
                0x000000004000a608      0x2b4 common/built-in.o
 .text.do_nfs   0x000000004000a8bc        0xc common/built-in.o
 .text.do_dhcp  0x000000004000a8c8        0xc common/built-in.o
 .text.do_bootp
                0x000000004000a8d4        0xc common/built-in.o
 .text.do_tftpb
                0x000000004000a8e0       0x40 common/built-in.o
                0x000000004000a8e0                do_tftpb
 .text.get_env_id
                0x000000004000a920       0x10 common/built-in.o
                0x000000004000a920                get_env_id
 .text.do_env_delete
                0x000000004000a930       0xa0 common/built-in.o
 .text._do_env_set
                0x000000004000a9d0      0x1cc common/built-in.o
 .text.do_env_set
                0x000000004000ab9c       0x20 common/built-in.o
 .text.setenv   0x000000004000abbc       0x64 common/built-in.o
                0x000000004000abbc                setenv
 .text.env_print
                0x000000004000ac20       0xd0 common/built-in.o
 .text.do_env_print
                0x000000004000acf0       0xd0 common/built-in.o
 .text.setenv_hex
                0x000000004000adc0       0x38 common/built-in.o
                0x000000004000adc0                setenv_hex
 .text.do_env   0x000000004000adf8       0x5c common/built-in.o
 .text.do_env_import
                0x000000004000ae54      0x250 common/built-in.o
 .text.do_env_export
                0x000000004000b0a4      0x270 common/built-in.o
 .text.do_env_default
                0x000000004000b314       0xa8 common/built-in.o
 .text.do_env_save
                0x000000004000b3bc       0x2c common/built-in.o
 .text.envmatch
                0x000000004000b3e8       0x64 common/built-in.o
                0x000000004000b3e8                envmatch
 .text.getenv_f
                0x000000004000b44c       0xc0 common/built-in.o
                0x000000004000b44c                getenv_f
 .text.getenv   0x000000004000b50c       0x80 common/built-in.o
                0x000000004000b50c                getenv
 .text.do_env_edit
                0x000000004000b58c       0x7c common/built-in.o
 .text.getenv_ulong
                0x000000004000b608       0x30 common/built-in.o
                0x000000004000b608                getenv_ulong
 .text.getenv_hex
                0x000000004000b638       0x34 common/built-in.o
                0x000000004000b638                getenv_hex
 .text.setenv_ulong
                0x000000004000b66c       0x20 common/built-in.o
                0x000000004000b66c                setenv_ulong
 .text.get_arg  0x000000004000b68c       0x50 common/built-in.o
 .text.do_setexpr
                0x000000004000b6dc      0x15c common/built-in.o
 .text.source   0x000000004000b838      0x108 common/built-in.o
                0x000000004000b838                source
 .text.do_source
                0x000000004000b940       0x44 common/built-in.o
                0x000000004000b940                do_source
 .text.do_false
                0x000000004000b984        0x8 common/built-in.o
 .text.do_true  0x000000004000b98c        0x8 common/built-in.o
 .text.do_test  0x000000004000b994      0x468 common/built-in.o
 .text.ubi_find_volume
                0x000000004000bdfc       0x68 common/built-in.o
 .text.ubi_volume_read
                0x000000004000be64      0x1e8 common/built-in.o
                0x000000004000be64                ubi_volume_read
 .text.ubi_volume_continue_write
                0x000000004000c04c       0xb8 common/built-in.o
                0x000000004000c04c                ubi_volume_continue_write
 .text.ubi_volume_begin_write
                0x000000004000c104       0x9c common/built-in.o
                0x000000004000c104                ubi_volume_begin_write
 .text.ubi_volume_write
                0x000000004000c1a0        0x8 common/built-in.o
                0x000000004000c1a0                ubi_volume_write
 .text.ubi_part
                0x000000004000c1a8      0x254 common/built-in.o
                0x000000004000c1a8                ubi_part
 .text.do_ubi   0x000000004000c3fc      0x978 common/built-in.o
 .text.ubifs_is_mounted
                0x000000004000cd74       0x10 common/built-in.o
                0x000000004000cd74                ubifs_is_mounted
 .text.do_ubifs_load
                0x000000004000cd84       0xc8 common/built-in.o
                0x000000004000cd84                do_ubifs_load
 .text.do_ubifs_ls
                0x000000004000ce4c       0x64 common/built-in.o
                0x000000004000ce4c                do_ubifs_ls
 .text.cmd_ubifs_umount
                0x000000004000ceb0       0x60 common/built-in.o
                0x000000004000ceb0                cmd_ubifs_umount
 .text.do_ubifs_umount
                0x000000004000cf10       0x40 common/built-in.o
                0x000000004000cf10                do_ubifs_umount
 .text.do_ubifs_mount
                0x000000004000cf50       0x5c common/built-in.o
                0x000000004000cf50                do_ubifs_mount
 .text.usb_get_class_desc
                0x000000004000cfac       0xa8 common/built-in.o
 .text.do_usbboot
                0x000000004000d054        0xc common/built-in.o
 .text.usb_display_class_sub
                0x000000004000d060      0x174 common/built-in.o
 .text.usb_show_tree_graph
                0x000000004000d1d4      0x214 common/built-in.o
 .text.usb_display_desc
                0x000000004000d3e8      0x130 common/built-in.o
 .text.usb_display_string
                0x000000004000d518       0x48 common/built-in.o
 .text.usb_display_config
                0x000000004000d560      0x22c common/built-in.o
 .text.do_usb   0x000000004000d78c      0x7c8 common/built-in.o
 .text.do_version
                0x000000004000df54       0x38 common/built-in.o
 .text.do_imgextract
                0x000000004000df8c      0x2b0 common/built-in.o
 .text.cmd_get_data_size
                0x000000004000e23c       0x50 common/built-in.o
                0x000000004000e23c                cmd_get_data_size
 .text.cmd_usage
                0x000000004000e28c       0x5c common/built-in.o
                0x000000004000e28c                cmd_usage
 .text.var_complete
                0x000000004000e2e8       0x7c common/built-in.o
                0x000000004000e2e8                var_complete
 .text.find_cmd_tbl
                0x000000004000e364       0x9c common/built-in.o
                0x000000004000e364                find_cmd_tbl
 .text.find_cmd
                0x000000004000e400       0x28 common/built-in.o
                0x000000004000e400                find_cmd
 .text.cmd_process
                0x000000004000e428       0xf0 common/built-in.o
                0x000000004000e428                cmd_process
 .text._do_help
                0x000000004000e518      0x17c common/built-in.o
                0x000000004000e518                _do_help
 .text.cmd_auto_complete
                0x000000004000e694      0x4a8 common/built-in.o
                0x000000004000e694                cmd_auto_complete
 .text.console_setfile
                0x000000004000eb3c       0xa0 common/built-in.o
 .text.fgetc    0x000000004000ebdc       0x28 common/built-in.o
                0x000000004000ebdc                fgetc
 .text.ftstc    0x000000004000ec04       0x28 common/built-in.o
                0x000000004000ec04                ftstc
 .text.fputc    0x000000004000ec2c       0x2c common/built-in.o
                0x000000004000ec2c                fputc
 .text.fputs    0x000000004000ec58       0x2c common/built-in.o
                0x000000004000ec58                fputs
 .text.had_ctrlc
                0x000000004000ec84       0x10 common/built-in.o
                0x000000004000ec84                had_ctrlc
 .text.clear_ctrlc
                0x000000004000ec94       0x14 common/built-in.o
                0x000000004000ec94                clear_ctrlc
 .text.console_init_f
                0x000000004000eca8       0x10 common/built-in.o
                0x000000004000eca8                console_init_f
 .text.search_device
                0x000000004000ecb8       0x28 common/built-in.o
                0x000000004000ecb8                search_device
 .text.console_assign
                0x000000004000ece0       0x40 common/built-in.o
                0x000000004000ece0                console_assign
 .text.puts     0x000000004000ed20       0x28 common/built-in.o
                0x000000004000ed20                puts
 .text.vprintf  0x000000004000ed48       0x50 common/built-in.o
                0x000000004000ed48                vprintf
 .text.printf   0x000000004000ed98       0x64 common/built-in.o
                0x000000004000ed98                printf
 .text.on_console
                0x000000004000edfc       0xb8 common/built-in.o
 .text.stdio_print_current_devices
                0x000000004000eeb4       0xb8 common/built-in.o
                0x000000004000eeb4                stdio_print_current_devices
 .text.console_init_r
                0x000000004000ef6c       0xf0 common/built-in.o
                0x000000004000ef6c                console_init_r
 .text.putc     0x000000004000f05c       0x28 common/built-in.o
                0x000000004000f05c                putc
 .text.tstc     0x000000004000f084       0x24 common/built-in.o
                0x000000004000f084                tstc
 .text.getc     0x000000004000f0a8       0x24 common/built-in.o
                0x000000004000f0a8                getc
 .text.ctrlc    0x000000004000f0cc       0x58 common/built-in.o
                0x000000004000f0cc                ctrlc
 .text.mem_malloc_init
                0x000000004000f124       0x3c common/built-in.o
                0x000000004000f124                mem_malloc_init
 .text.sbrk     0x000000004000f160       0x6c common/built-in.o
                0x000000004000f160                sbrk
 .text.malloc_trim
                0x000000004000f1cc       0xd4 common/built-in.o
                0x000000004000f1cc                malloc_trim
 .text.free     0x000000004000f2a0      0x22c common/built-in.o
                0x000000004000f2a0                free
 .text.malloc   0x000000004000f4cc      0x61c common/built-in.o
                0x000000004000f4cc                malloc
 .text.memalign
                0x000000004000fae8      0x110 common/built-in.o
                0x000000004000fae8                memalign
 .text.calloc   0x000000004000fbf8       0xe0 common/built-in.o
                0x000000004000fbf8                calloc
 .text.realloc  0x000000004000fcd8      0x460 common/built-in.o
                0x000000004000fcd8                realloc
 .text.reverse_strstr
                0x0000000040010138       0x5c common/built-in.o
 .text.env_attr_lookup
                0x0000000040010194      0x128 common/built-in.o
                0x0000000040010194                env_attr_lookup
 .text.env_attr_walk
                0x00000000400102bc      0x10c common/built-in.o
                0x00000000400102bc                env_attr_walk
 .text.clear_callback
                0x00000000400103c8       0x10 common/built-in.o
 .text.on_callbacks
                0x00000000400103d8       0x48 common/built-in.o
 .text.find_env_callback
                0x0000000040010420       0x5c common/built-in.o
 .text.set_callback
                0x000000004001047c       0x94 common/built-in.o
 .text.env_callback_init
                0x0000000040010510       0xc8 common/built-in.o
                0x0000000040010510                env_callback_init
 .text.__env_get_char_spec
                0x00000000400105d8        0xc common/built-in.o
                0x00000000400105d8                env_get_char_spec
 .text.env_get_char
                0x00000000400105e4       0x4c common/built-in.o
                0x00000000400105e4                env_get_char
 .text.env_complete
                0x0000000040010630       0xe4 common/built-in.o
                0x0000000040010630                env_complete
 .text.set_default_vars
                0x0000000040010714       0x38 common/built-in.o
                0x0000000040010714                set_default_vars
 .text.set_default_env
                0x000000004001074c       0xc4 common/built-in.o
                0x000000004001074c                set_default_env
 .text.env_relocate
                0x0000000040010810       0x30 common/built-in.o
                0x0000000040010810                env_relocate
 .text.env_import
                0x0000000040010840       0xe0 common/built-in.o
                0x0000000040010840                env_import
 .text.getenv_default
                0x0000000040010920       0x30 common/built-in.o
                0x0000000040010920                getenv_default
 .text.getenv_yesno
                0x0000000040010950       0x4c common/built-in.o
                0x0000000040010950                getenv_yesno
 .text.skip_num
                0x000000004001099c       0x78 common/built-in.o
 .text.clear_flags
                0x0000000040010a14       0x10 common/built-in.o
 .text.on_flags
                0x0000000040010a24       0x48 common/built-in.o
 .text.env_flags_validate
                0x0000000040010a6c      0x334 common/built-in.o
                0x0000000040010a6c                env_flags_validate
 .text.env_flags_parse_varaccess
                0x0000000040010da0       0x50 common/built-in.o
                0x0000000040010da0                env_flags_parse_varaccess
 .text.env_flags_parse_vartype
                0x0000000040010df0       0x4c common/built-in.o
                0x0000000040010df0                env_flags_parse_vartype
 .text.env_parse_flags_to_bin
                0x0000000040010e3c       0x2c common/built-in.o
 .text.set_flags
                0x0000000040010e68       0x90 common/built-in.o
 .text.env_flags_init
                0x0000000040010ef8       0xbc common/built-in.o
                0x0000000040010ef8                env_flags_init
 .text.env_init
                0x0000000040010fb4       0x1c common/built-in.o
                0x0000000040010fb4                env_init
 .text.readenv  0x0000000040010fd0       0xd0 common/built-in.o
                0x0000000040010fd0                readenv
 .text.env_relocate_spec
                0x00000000400110a0      0x1d4 common/built-in.o
                0x00000000400110a0                env_relocate_spec
 .text.writeenv
                0x0000000040011274       0xb0 common/built-in.o
                0x0000000040011274                writeenv
 .text.erase_and_write_env
                0x0000000040011324       0x84 common/built-in.o
 .text.saveenv  0x00000000400113a8      0x140 common/built-in.o
                0x00000000400113a8                saveenv
 .text.dummy    0x00000000400114e8        0x4 common/built-in.o
 .text.get_version
                0x00000000400114ec        0x8 common/built-in.o
                0x00000000400114ec                get_version
 .text.jumptable_init
                0x00000000400114f4      0x1e0 common/built-in.o
                0x00000000400114f4                jumptable_init
 .text.get_cells_len
                0x00000000400116d4       0x4c common/built-in.o
 .text.fdt_resize
                0x0000000040011720      0x118 common/built-in.o
                0x0000000040011720                fdt_resize
 .text.fdt_initrd
                0x0000000040011838      0x280 common/built-in.o
                0x0000000040011838                fdt_initrd
 .text.fdt_fixup_memory_banks
                0x0000000040011ab8      0x228 common/built-in.o
                0x0000000040011ab8                fdt_fixup_memory_banks
 .text.fdt_fixup_memory
                0x0000000040011ce0       0x20 common/built-in.o
                0x0000000040011ce0                fdt_fixup_memory
 .text.fdt_chosen
                0x0000000040011d00      0x104 common/built-in.o
                0x0000000040011d00                fdt_chosen
 .text.fdt_find_and_setprop
                0x0000000040011e04       0x70 common/built-in.o
                0x0000000040011e04                fdt_find_and_setprop
 .text.do_fixup_by_path
                0x0000000040011e74       0x54 common/built-in.o
                0x0000000040011e74                do_fixup_by_path
 .text.fdt_fixup_ethernet
                0x0000000040011ec8      0x12c common/built-in.o
                0x0000000040011ec8                fdt_fixup_ethernet
 .text.hash_command
                0x0000000040011ff4       0xa4 common/built-in.o
                0x0000000040011ff4                hash_command
 .text.static_get
                0x0000000040012098       0x1c common/built-in.o
 .text.static_peek
                0x00000000400120b4        0xc common/built-in.o
 .text.file_peek
                0x00000000400120c0        0xc common/built-in.o
 .text.do_showvar
                0x00000000400120cc       0xec common/built-in.o
 .text.u_boot_hush_start
                0x00000000400121b8       0x50 common/built-in.o
                0x00000000400121b8                u_boot_hush_start
 .text.xmalloc  0x0000000040012208       0x20 common/built-in.o
 .text.file_get
                0x0000000040012228      0x1bc common/built-in.o
 .text.free_pipe_list
                0x00000000400123e4       0xe4 common/built-in.o
 .text.xrealloc
                0x00000000400124c8       0x20 common/built-in.o
 .text.done_command
                0x00000000400124e8       0x88 common/built-in.o
 .text.initialize_context
                0x0000000040012570       0x50 common/built-in.o
 .text.done_pipe
                0x00000000400125c0       0x60 common/built-in.o
 .text.b_addchr
                0x0000000040012620       0x78 common/built-in.o
 .text.done_word
                0x0000000040012698      0x2d0 common/built-in.o
 .text.b_addqchr
                0x0000000040012968       0x4c common/built-in.o
 .text.get_local_var
                0x00000000400129b4       0x98 common/built-in.o
                0x00000000400129b4                get_local_var
 .text.set_local_var
                0x0000000040012a4c      0x1ac common/built-in.o
                0x0000000040012a4c                set_local_var
 .text.insert_var_value_sub
                0x0000000040012bf8      0x2c8 common/built-in.o
 .text.parse_stream_outer
                0x0000000040012ec0      0x76c common/built-in.o
 .text.parse_file_outer
                0x000000004001362c       0x44 common/built-in.o
                0x000000004001362c                parse_file_outer
 .text.parse_string_outer
                0x0000000040013670       0xf0 common/built-in.o
                0x0000000040013670                parse_string_outer
 .text.run_list_real
                0x0000000040013760      0x830 common/built-in.o
 .text.ft_verify_fdt
                0x0000000040013f90        0x8 common/built-in.o
                0x0000000040013f90                ft_verify_fdt
 .text.fdt_error
                0x0000000040013f98       0x2c common/built-in.o
 .text.image_setup_libfdt
                0x0000000040013fc4      0x104 common/built-in.o
                0x0000000040013fc4                image_setup_libfdt
 .text.boot_get_fdt
                0x00000000400140c8      0x2c0 common/built-in.o
                0x00000000400140c8                boot_get_fdt
 .text.boot_relocate_fdt
                0x0000000040014388      0x1bc common/built-in.o
                0x0000000040014388                boot_relocate_fdt
 .text.boot_fdt_add_mem_rsv_regions
                0x0000000040014544       0x94 common/built-in.o
                0x0000000040014544                boot_fdt_add_mem_rsv_regions
 .text.image_multi_count
                0x00000000400145d8       0x24 common/built-in.o
                0x00000000400145d8                image_multi_count
 .text.genimg_get_os_name
                0x00000000400145fc       0x38 common/built-in.o
                0x00000000400145fc                genimg_get_os_name
 .text.genimg_get_type_name
                0x0000000040014634       0x38 common/built-in.o
                0x0000000040014634                genimg_get_type_name
 .text.genimg_get_image
                0x000000004001466c        0x4 common/built-in.o
                0x000000004001466c                genimg_get_image
 .text.genimg_has_config
                0x0000000040014670        0x8 common/built-in.o
                0x0000000040014670                genimg_has_config
 .text.on_loadaddr
                0x0000000040014678       0x38 common/built-in.o
 .text.getenv_bootm_low
                0x00000000400146b0       0x30 common/built-in.o
                0x00000000400146b0                getenv_bootm_low
 .text.image_multi_getimg
                0x00000000400146e0       0xa8 common/built-in.o
                0x00000000400146e0                image_multi_getimg
 .text.genimg_get_format
                0x0000000040014788       0x48 common/built-in.o
                0x0000000040014788                genimg_get_format
 .text.genimg_print_time
                0x00000000400147d0       0x48 common/built-in.o
                0x00000000400147d0                genimg_print_time
 .text.genimg_print_size
                0x0000000040014818       0x30 common/built-in.o
                0x0000000040014818                genimg_print_size
 .text.image_print_contents
                0x0000000040014848      0x284 common/built-in.o
                0x0000000040014848                image_print_contents
 .text.memmove_wd
                0x0000000040014acc        0xc common/built-in.o
                0x0000000040014acc                memmove_wd
 .text.boot_ramdisk_high
                0x0000000040014ad8      0x12c common/built-in.o
                0x0000000040014ad8                boot_ramdisk_high
 .text.image_setup_linux
                0x0000000040014c04       0x88 common/built-in.o
                0x0000000040014c04                image_setup_linux
 .text.getenv_bootm_size
                0x0000000040014c8c       0x5c common/built-in.o
                0x0000000040014c8c                getenv_bootm_size
 .text.getenv_bootm_mapsize
                0x0000000040014ce8       0x30 common/built-in.o
                0x0000000040014ce8                getenv_bootm_mapsize
 .text.image_check_dcrc
                0x0000000040014d18       0x60 common/built-in.o
                0x0000000040014d18                image_check_dcrc
 .text.image_check_hcrc
                0x0000000040014d78       0x68 common/built-in.o
                0x0000000040014d78                image_check_hcrc
 .text.boot_get_ramdisk
                0x0000000040014de0      0x290 common/built-in.o
                0x0000000040014de0                boot_get_ramdisk
 .text.__show_boot_progress
                0x0000000040015070        0x4 common/built-in.o
                0x0000000040015070                __show_boot_progress
                0x0000000040015070                show_boot_progress
 .text.run_command_list
                0x0000000040015074       0x5c common/built-in.o
                0x0000000040015074                run_command_list
 .text.run_command
                0x00000000400150d0        0x8 common/built-in.o
                0x00000000400150d0                run_command
 .text.do_run   0x00000000400150d8       0x6c common/built-in.o
                0x00000000400150d8                do_run
 .text.delete_char
                0x0000000040015144       0xdc common/built-in.o
 .text.cread_add_char
                0x0000000040015220       0xec common/built-in.o
 .text.readline_into_buffer
                0x000000004001530c      0x9f0 common/built-in.o
                0x000000004001530c                readline_into_buffer
 .text.readline
                0x0000000040015cfc       0x1c common/built-in.o
                0x0000000040015cfc                readline
 .text.main_loop
                0x0000000040015d18      0x124 common/built-in.o
                0x0000000040015d18                main_loop
 .text.miiphy_init
                0x0000000040015e3c       0x24 common/built-in.o
                0x0000000040015e3c                miiphy_init
 .text.miiphy_get_current_dev
                0x0000000040015e60       0x18 common/built-in.o
                0x0000000040015e60                miiphy_get_current_dev
 .text.miiphy_is_1000base_x
                0x0000000040015e78        0x8 common/built-in.o
                0x0000000040015e78                miiphy_is_1000base_x
 .text.miiphy_listdev
                0x0000000040015e80       0x74 common/built-in.o
                0x0000000040015e80                miiphy_listdev
 .text.miiphy_get_dev_by_name
                0x0000000040015ef4       0x64 common/built-in.o
                0x0000000040015ef4                miiphy_get_dev_by_name
 .text.miiphy_set_current_dev
                0x0000000040015f58       0x40 common/built-in.o
                0x0000000040015f58                miiphy_set_current_dev
 .text.mdio_register
                0x0000000040015f98       0x90 common/built-in.o
                0x0000000040015f98                mdio_register
 .text.miiphy_get_active_dev
                0x0000000040016028       0x50 common/built-in.o
 .text.miiphy_write
                0x0000000040016078       0x3c common/built-in.o
                0x0000000040016078                miiphy_write
 .text.miiphy_read
                0x00000000400160b4       0x48 common/built-in.o
                0x00000000400160b4                miiphy_read
 .text.miiphy_duplex
                0x00000000400160fc       0x90 common/built-in.o
                0x00000000400160fc                miiphy_duplex
 .text.miiphy_speed
                0x000000004001618c       0x90 common/built-in.o
                0x000000004001618c                miiphy_speed
 .text.miiphy_info
                0x000000004001621c       0x90 common/built-in.o
                0x000000004001621c                miiphy_info
 .text.mdio_alloc
                0x00000000400162ac       0x30 common/built-in.o
                0x00000000400162ac                mdio_alloc
 .text.hex2_bin
                0x00000000400162dc       0x80 common/built-in.o
 .text.srec_decode
                0x000000004001635c      0x270 common/built-in.o
                0x000000004001635c                srec_decode
 .text.stdio_get_list
                0x00000000400165cc        0xc common/built-in.o
                0x00000000400165cc                stdio_get_list
 .text.stdio_clone
                0x00000000400165d8       0x38 common/built-in.o
                0x00000000400165d8                stdio_clone
 .text.stdio_register
                0x0000000040016610       0x40 common/built-in.o
                0x0000000040016610                stdio_register
 .text.stdio_init
                0x0000000040016650       0x90 common/built-in.o
                0x0000000040016650                stdio_init
 .text.stdio_get_by_name
                0x00000000400166e0       0x4c common/built-in.o
                0x00000000400166e0                stdio_get_by_name
 .text.usb_disable_asynch
                0x000000004001672c       0x1c common/built-in.o
                0x000000004001672c                usb_disable_asynch
 .text.usb_maxpacket
                0x0000000040016748       0x24 common/built-in.o
                0x0000000040016748                usb_maxpacket
 .text.usb_set_maxpacket_ep
                0x000000004001676c       0x70 common/built-in.o
 .text.usb_get_dev_index
                0x00000000400167dc       0x24 common/built-in.o
                0x00000000400167dc                usb_get_dev_index
 .text.usb_alloc_device
                0x0000000040016800        0x8 common/built-in.o
                0x0000000040016800                usb_alloc_device
 .text.usb_alloc_new_device
                0x0000000040016808       0xa8 common/built-in.o
                0x0000000040016808                usb_alloc_new_device
 .text.usb_free_device
                0x00000000400168b0       0x48 common/built-in.o
                0x00000000400168b0                usb_free_device
 .text.usb_bulk_msg
                0x00000000400168f8       0x6c common/built-in.o
                0x00000000400168f8                usb_bulk_msg
 .text.usb_control_msg
                0x0000000040016964       0xfc common/built-in.o
                0x0000000040016964                usb_control_msg
 .text.usb_get_descriptor
                0x0000000040016a60       0x64 common/built-in.o
 .text.usb_get_configuration_no
                0x0000000040016ac4       0xc0 common/built-in.o
                0x0000000040016ac4                usb_get_configuration_no
 .text.usb_get_string
                0x0000000040016b84       0x74 common/built-in.o
 .text.usb_string_sub
                0x0000000040016bf8      0x100 common/built-in.o
 .text.usb_string
                0x0000000040016cf8      0x104 common/built-in.o
                0x0000000040016cf8                usb_string
 .text.usb_set_interface
                0x0000000040016dfc       0xb8 common/built-in.o
                0x0000000040016dfc                usb_set_interface
 .text.usb_clear_halt
                0x0000000040016eb4       0xa8 common/built-in.o
                0x0000000040016eb4                usb_clear_halt
 .text.usb_stop
                0x0000000040016f5c       0x5c common/built-in.o
                0x0000000040016f5c                usb_stop
 .text.usb_new_device
                0x0000000040016fb8      0x62c common/built-in.o
                0x0000000040016fb8                usb_new_device
 .text.usb_init
                0x00000000400175e4      0x11c common/built-in.o
                0x00000000400175e4                usb_init
 .text.usb_hub_reset_devices
                0x0000000040017700        0x4 common/built-in.o
                0x0000000040017700                usb_hub_reset_devices
 .text.usb_hub_reset
                0x0000000040017704       0x14 common/built-in.o
                0x0000000040017704                usb_hub_reset
 .text.usb_get_port_status
                0x0000000040017718       0x58 common/built-in.o
 .text.usb_clear_port_feature
                0x0000000040017770       0x58 common/built-in.o
 .text.usb_hub_power_on
                0x00000000400177c8       0xe8 common/built-in.o
 .text.hub_port_reset
                0x00000000400178b0       0xf0 common/built-in.o
                0x00000000400178b0                hub_port_reset
 .text.usb_hub_port_connect_change
                0x00000000400179a0      0x130 common/built-in.o
                0x00000000400179a0                usb_hub_port_connect_change
 .text.usb_hub_configure
                0x0000000040017ad0      0x378 common/built-in.o
 .text.usb_hub_probe
                0x0000000040017e48       0x5c common/built-in.o
                0x0000000040017e48                usb_hub_probe
 .text.usb_stor_get_dev
                0x0000000040017ea4       0x2c common/built-in.o
                0x0000000040017ea4                usb_stor_get_dev
 .text.usb_stor_irq
                0x0000000040017ed0       0x1c common/built-in.o
 .text.usb_storage_probe
                0x0000000040017eec      0x224 common/built-in.o
                0x0000000040017eec                usb_storage_probe
 .text.usb_stor_BBB_reset
                0x0000000040018110       0xd0 common/built-in.o
 .text.usb_stor_CB_reset
                0x00000000400181e0       0xd4 common/built-in.o
 .text.usb_stor_BBB_transport
                0x00000000400182b4      0x2d8 common/built-in.o
 .text.usb_stor_CB_comdat
                0x000000004001858c      0x230 common/built-in.o
 .text.usb_stor_CBI_get_status
                0x00000000400187bc       0xdc common/built-in.o
 .text.usb_stor_CB_transport
                0x0000000040018898      0x1f0 common/built-in.o
 .text.usb_stor_info
                0x0000000040018a88       0x70 common/built-in.o
                0x0000000040018a88                usb_stor_info
 .text.T.125    0x0000000040018af8       0x70 common/built-in.o
 .text.usb_stor_read
                0x0000000040018b68      0x1c4 common/built-in.o
                0x0000000040018b68                usb_stor_read
 .text.usb_stor_write
                0x0000000040018d2c      0x1c4 common/built-in.o
                0x0000000040018d2c                usb_stor_write
 .text.usb_stor_get_info
                0x0000000040018ef0      0x378 common/built-in.o
                0x0000000040018ef0                usb_stor_get_info
 .text.usb_stor_scan
                0x0000000040019268      0x1f0 common/built-in.o
                0x0000000040019268                usb_stor_scan
 .text.xyzModem_error
                0x0000000040019458       0x20 common/built-in.o
                0x0000000040019458                xyzModem_error
 .text.CYGACC_COMM_IF_GETC_TIMEOUT
                0x0000000040019478       0x58 common/built-in.o
 .text.xyzModem_stream_terminate
                0x00000000400194d0       0xb0 common/built-in.o
                0x00000000400194d0                xyzModem_stream_terminate
 .text.xyzModem_stream_close
                0x0000000040019580       0x50 common/built-in.o
                0x0000000040019580                xyzModem_stream_close
 .text.xyzModem_get_hdr
                0x00000000400195d0      0x2b4 common/built-in.o
 .text.xyzModem_stream_read
                0x0000000040019884      0x248 common/built-in.o
                0x0000000040019884                xyzModem_stream_read
 .text.xyzModem_stream_open
                0x0000000040019acc      0x250 common/built-in.o
                0x0000000040019acc                xyzModem_stream_open
 .text.get_dev  0x0000000040019d1c       0x68 disk/built-in.o
                0x0000000040019d1c                get_dev
 .text.get_device
                0x0000000040019d84       0x88 disk/built-in.o
                0x0000000040019d84                get_device
 .text.get_partition_info
                0x0000000040019e0c       0x24 disk/built-in.o
                0x0000000040019e0c                get_partition_info
 .text.get_device_and_partition
                0x0000000040019e30      0x454 disk/built-in.o
                0x0000000040019e30                get_device_and_partition
 .text.dev_print
                0x000000004001a284      0x228 disk/built-in.o
                0x000000004001a284                dev_print
 .text.init_part
                0x000000004001a4ac       0x20 disk/built-in.o
                0x000000004001a4ac                init_part
 .text.print_part
                0x000000004001a4cc       0xf8 disk/built-in.o
                0x000000004001a4cc                print_part
 .text.get_partition_info_extended
                0x000000004001a5c4      0x2b0 disk/built-in.o
 .text.get_partition_info_dos
                0x000000004001a874       0x28 disk/built-in.o
                0x000000004001a874                get_partition_info_dos
 .text.test_block_type
                0x000000004001a89c       0x80 disk/built-in.o
 .text.print_partition_extended
                0x000000004001a91c      0x278 disk/built-in.o
 .text.print_part_dos
                0x000000004001ab94       0x34 disk/built-in.o
                0x000000004001ab94                print_part_dos
 .text.test_part_dos
                0x000000004001abc8       0x64 disk/built-in.o
                0x000000004001abc8                test_part_dos
 .text.GregorianDay
                0x000000004001ac2c       0xf0 drivers/built-in.o
                0x000000004001ac2c                GregorianDay
 .text.to_tm    0x000000004001ad1c      0x114 drivers/built-in.o
                0x000000004001ad1c                to_tm
 .text.mktime   0x000000004001ae30       0x98 drivers/built-in.o
                0x000000004001ae30                mktime
 .text.rtc_get  0x000000004001aec8       0x20 drivers/built-in.o
                0x000000004001aec8                rtc_get
 .text.mxs_rtc_set_time
                0x000000004001aee8       0x48 drivers/built-in.o
                0x000000004001aee8                mxs_rtc_set_time
 .text.rtc_reset
                0x000000004001af30       0x30 drivers/built-in.o
                0x000000004001af30                rtc_reset
 .text.rtc_set  0x000000004001af60       0x30 drivers/built-in.o
                0x000000004001af60                rtc_set
 .text.mxs_dma_release
                0x000000004001af90       0x58 drivers/dma/built-in.o
                0x000000004001af90                mxs_dma_release
 .text.mxs_dma_init_channel
                0x000000004001afe8       0xb4 drivers/dma/built-in.o
                0x000000004001afe8                mxs_dma_init_channel
 .text.mxs_dma_init
                0x000000004001b09c       0x2c drivers/dma/built-in.o
                0x000000004001b09c                mxs_dma_init
 .text.mxs_dma_go
                0x000000004001b0c8      0x384 drivers/dma/built-in.o
                0x000000004001b0c8                mxs_dma_go
 .text.mxs_dma_desc_free
                0x000000004001b44c        0xc drivers/dma/built-in.o
                0x000000004001b44c                mxs_dma_desc_free
 .text.mxs_dma_desc_alloc
                0x000000004001b458       0x30 drivers/dma/built-in.o
                0x000000004001b458                mxs_dma_desc_alloc
 .text.mxs_dma_flush_desc
                0x000000004001b488        0x8 drivers/dma/built-in.o
                0x000000004001b488                mxs_dma_flush_desc
 .text.mxs_dma_desc_append
                0x000000004001b490       0xd4 drivers/dma/built-in.o
                0x000000004001b490                mxs_dma_desc_append
 .text.mxs_gpio_init
                0x000000004001b564       0x34 drivers/gpio/built-in.o
                0x000000004001b564                mxs_gpio_init
 .text.gpio_get_value
                0x000000004001b598       0x28 drivers/gpio/built-in.o
                0x000000004001b598                gpio_get_value
 .text.gpio_set_value
                0x000000004001b5c0       0x48 drivers/gpio/built-in.o
                0x000000004001b5c0                gpio_set_value
 .text.gpio_direction_input
                0x000000004001b608       0x30 drivers/gpio/built-in.o
                0x000000004001b608                gpio_direction_input
 .text.gpio_direction_output
                0x000000004001b638       0x3c drivers/gpio/built-in.o
                0x000000004001b638                gpio_direction_output
 .text.gpio_request
                0x000000004001b674       0x14 drivers/gpio/built-in.o
                0x000000004001b674                gpio_request
 .text.gpio_free
                0x000000004001b688        0x8 drivers/gpio/built-in.o
                0x000000004001b688                gpio_free
 .text.get_mtd_device
                0x000000004001b690       0x70 drivers/mtd/built-in.o
                0x000000004001b690                get_mtd_device
 .text.mtd_erase
                0x000000004001b700       0xbc drivers/mtd/built-in.o
                0x000000004001b700                mtd_erase
 .text.mtd_write
                0x000000004001b7bc       0xbc drivers/mtd/built-in.o
                0x000000004001b7bc                mtd_write
 .text.mtd_read_oob
                0x000000004001b878       0x30 drivers/mtd/built-in.o
                0x000000004001b878                mtd_read_oob
 .text.mtd_get_fact_prot_info
                0x000000004001b8a8       0x28 drivers/mtd/built-in.o
                0x000000004001b8a8                mtd_get_fact_prot_info
 .text.mtd_read_fact_prot_reg
                0x000000004001b8d0       0x4c drivers/mtd/built-in.o
                0x000000004001b8d0                mtd_read_fact_prot_reg
 .text.mtd_get_user_prot_info
                0x000000004001b91c       0x28 drivers/mtd/built-in.o
                0x000000004001b91c                mtd_get_user_prot_info
 .text.mtd_read_user_prot_reg
                0x000000004001b944       0x4c drivers/mtd/built-in.o
                0x000000004001b944                mtd_read_user_prot_reg
 .text.mtd_write_user_prot_reg
                0x000000004001b990       0x4c drivers/mtd/built-in.o
                0x000000004001b990                mtd_write_user_prot_reg
 .text.mtd_lock_user_prot_reg
                0x000000004001b9dc       0x30 drivers/mtd/built-in.o
                0x000000004001b9dc                mtd_lock_user_prot_reg
 .text.mtd_lock
                0x000000004001ba0c       0x98 drivers/mtd/built-in.o
                0x000000004001ba0c                mtd_lock
 .text.mtd_unlock
                0x000000004001baa4       0x98 drivers/mtd/built-in.o
                0x000000004001baa4                mtd_unlock
 .text.mtd_block_isbad
                0x000000004001bb3c       0x48 drivers/mtd/built-in.o
                0x000000004001bb3c                mtd_block_isbad
 .text.mtd_block_markbad
                0x000000004001bb84       0x58 drivers/mtd/built-in.o
                0x000000004001bb84                mtd_block_markbad
 .text.mtd_read
                0x000000004001bbdc       0xb8 drivers/mtd/built-in.o
                0x000000004001bbdc                mtd_read
 .text.put_mtd_device
                0x000000004001bc94       0x2c drivers/mtd/built-in.o
                0x000000004001bc94                put_mtd_device
 .text.del_mtd_device
                0x000000004001bcc0       0x50 drivers/mtd/built-in.o
                0x000000004001bcc0                del_mtd_device
 .text.add_mtd_device
                0x000000004001bd10       0x80 drivers/mtd/built-in.o
                0x000000004001bd10                add_mtd_device
 .text.get_mtd_device_nm
                0x000000004001bd90       0x68 drivers/mtd/built-in.o
                0x000000004001bd90                get_mtd_device_nm
 .text.part_write_oob
                0x000000004001bdf8       0xa4 drivers/mtd/built-in.o
 .text.mtd_erase_callback
                0x000000004001be9c       0x70 drivers/mtd/built-in.o
                0x000000004001be9c                mtd_erase_callback
 .text.part_sync
                0x000000004001bf0c       0x1c drivers/mtd/built-in.o
 .text.part_block_isbad
                0x000000004001bf28       0x1c drivers/mtd/built-in.o
 .text.part_erase
                0x000000004001bf44       0x74 drivers/mtd/built-in.o
 .text.part_block_markbad
                0x000000004001bfb8       0x30 drivers/mtd/built-in.o
 .text.part_unlock
                0x000000004001bfe8       0x1c drivers/mtd/built-in.o
 .text.part_lock
                0x000000004001c004       0x1c drivers/mtd/built-in.o
 .text.part_get_fact_prot_info
                0x000000004001c020        0x8 drivers/mtd/built-in.o
 .text.part_get_user_prot_info
                0x000000004001c028        0x8 drivers/mtd/built-in.o
 .text.part_lock_user_prot_reg
                0x000000004001c030        0x8 drivers/mtd/built-in.o
 .text.part_write_user_prot_reg
                0x000000004001c038        0x8 drivers/mtd/built-in.o
 .text.part_read_fact_prot_reg
                0x000000004001c040        0x8 drivers/mtd/built-in.o
 .text.part_read_user_prot_reg
                0x000000004001c048        0x8 drivers/mtd/built-in.o
 .text.part_read_oob
                0x000000004001c050       0xa4 drivers/mtd/built-in.o
 .text.part_write
                0x000000004001c0f4       0x1c drivers/mtd/built-in.o
 .text.part_read
                0x000000004001c110       0x94 drivers/mtd/built-in.o
 .text.del_mtd_partitions
                0x000000004001c1a4       0x88 drivers/mtd/built-in.o
                0x000000004001c1a4                del_mtd_partitions
 .text.add_mtd_partitions
                0x000000004001c22c      0x678 drivers/mtd/built-in.o
                0x000000004001c22c                add_mtd_partitions
 .text.mxs_nand_device_ready
                0x000000004001c8a4       0x28 drivers/mtd/nand/built-in.o
 .text.mxs_nand_select_chip
                0x000000004001c8cc       0x10 drivers/mtd/nand/built-in.o
 .text.mxs_nand_hook_read_oob
                0x000000004001c8dc       0x3c drivers/mtd/nand/built-in.o
 .text.mxs_nand_hook_write_oob
                0x000000004001c918       0x3c drivers/mtd/nand/built-in.o
 .text.mxs_nand_hook_block_markbad
                0x000000004001c954       0x28 drivers/mtd/nand/built-in.o
 .text.mxs_nand_block_bad
                0x000000004001c97c        0x8 drivers/mtd/nand/built-in.o
 .text.mxs_nand_ecc_write_oob
                0x000000004001c984       0x94 drivers/mtd/nand/built-in.o
 .text.mxs_nand_get_dma_desc
                0x000000004001ca18       0x3c drivers/mtd/nand/built-in.o
 .text.mxs_nand_return_dma_descs
                0x000000004001ca54       0x44 drivers/mtd/nand/built-in.o
 .text.mxs_nand_write_buf
                0x000000004001ca98       0xbc drivers/mtd/nand/built-in.o
 .text.mxs_nand_cmd_ctrl
                0x000000004001cb54       0xd8 drivers/mtd/nand/built-in.o
 .text.mxs_nand_read_buf
                0x000000004001cc2c      0x104 drivers/mtd/nand/built-in.o
 .text.mxs_nand_ecc_read_oob
                0x000000004001cd30       0x8c drivers/mtd/nand/built-in.o
 .text.mxs_nand_read_byte
                0x000000004001cdbc       0x18 drivers/mtd/nand/built-in.o
 .text.mxs_nand_scan_bbt
                0x000000004001cdd4      0x160 drivers/mtd/nand/built-in.o
 .text.mxs_nand_init
                0x000000004001cf34      0x100 drivers/mtd/nand/built-in.o
                0x000000004001cf34                mxs_nand_init
 .text.mxs_nand_alloc_buffers
                0x000000004001d034       0x90 drivers/mtd/nand/built-in.o
                0x000000004001d034                mxs_nand_alloc_buffers
 .text.board_nand_init
                0x000000004001d0c4      0x15c drivers/mtd/nand/built-in.o
                0x000000004001d0c4                board_nand_init
 .text.mxs_nand_swap_block_mark
                0x000000004001d220      0x164 drivers/mtd/nand/built-in.o
 .text.mxs_nand_ecc_write_page
                0x000000004001d384      0x124 drivers/mtd/nand/built-in.o
 .text.mxs_nand_ecc_read_page
                0x000000004001d4a8      0x234 drivers/mtd/nand/built-in.o
 .text.nand_register
                0x000000004001d6dc       0x90 drivers/mtd/nand/built-in.o
                0x000000004001d6dc                nand_register
 .text.nand_init
                0x000000004001d76c       0x6c drivers/mtd/nand/built-in.o
                0x000000004001d76c                nand_init
 .text.generic_ffs
                0x000000004001d7d8       0x54 drivers/mtd/nand/built-in.o
 .text.nand_read_byte
                0x000000004001d82c       0x14 drivers/mtd/nand/built-in.o
                0x000000004001d82c                nand_read_byte
 .text.nand_read_byte16
                0x000000004001d840       0x14 drivers/mtd/nand/built-in.o
 .text.nand_read_word
                0x000000004001d854       0x10 drivers/mtd/nand/built-in.o
 .text.nand_write_buf
                0x000000004001d864       0x2c drivers/mtd/nand/built-in.o
                0x000000004001d864                nand_write_buf
 .text.nand_read_buf
                0x000000004001d890       0x2c drivers/mtd/nand/built-in.o
                0x000000004001d890                nand_read_buf
 .text.nand_verify_buf
                0x000000004001d8bc       0x44 drivers/mtd/nand/built-in.o
 .text.nand_write_buf16
                0x000000004001d900       0x34 drivers/mtd/nand/built-in.o
                0x000000004001d900                nand_write_buf16
 .text.nand_read_buf16
                0x000000004001d934       0x34 drivers/mtd/nand/built-in.o
                0x000000004001d934                nand_read_buf16
 .text.nand_verify_buf16
                0x000000004001d968       0x48 drivers/mtd/nand/built-in.o
 .text.nand_check_wp
                0x000000004001d9b0       0x4c drivers/mtd/nand/built-in.o
 .text.nand_read_page_raw
                0x000000004001d9fc       0x44 drivers/mtd/nand/built-in.o
 .text.nand_read_page_raw_syndrome
                0x000000004001da40       0xd0 drivers/mtd/nand/built-in.o
 .text.nand_read_page_swecc
                0x000000004001db10      0x128 drivers/mtd/nand/built-in.o
 .text.nand_read_subpage
                0x000000004001dc38      0x278 drivers/mtd/nand/built-in.o
 .text.nand_read_page_hwecc
                0x000000004001deb0      0x138 drivers/mtd/nand/built-in.o
 .text.nand_read_page_hwecc_oob_first
                0x000000004001dfe8      0x13c drivers/mtd/nand/built-in.o
 .text.nand_read_page_syndrome
                0x000000004001e124      0x120 drivers/mtd/nand/built-in.o
 .text.nand_read_oob_std
                0x000000004001e244       0x3c drivers/mtd/nand/built-in.o
 .text.nand_read_oob_syndrome
                0x000000004001e280      0x100 drivers/mtd/nand/built-in.o
 .text.nand_write_oob_std
                0x000000004001e380       0x70 drivers/mtd/nand/built-in.o
 .text.nand_write_oob_syndrome
                0x000000004001e3f0      0x1a8 drivers/mtd/nand/built-in.o
 .text.nand_write_page_raw
                0x000000004001e598       0x44 drivers/mtd/nand/built-in.o
 .text.nand_write_page_raw_syndrome
                0x000000004001e5dc       0xd0 drivers/mtd/nand/built-in.o
 .text.nand_write_page_swecc
                0x000000004001e6ac       0xb8 drivers/mtd/nand/built-in.o
 .text.nand_write_page_hwecc
                0x000000004001e764       0xcc drivers/mtd/nand/built-in.o
 .text.nand_write_page_syndrome
                0x000000004001e830       0xf0 drivers/mtd/nand/built-in.o
 .text.single_erase_cmd
                0x000000004001e920       0x3c drivers/mtd/nand/built-in.o
 .text.multi_erase_cmd
                0x000000004001e95c       0x8c drivers/mtd/nand/built-in.o
 .text.nand_sync
                0x000000004001e9e8       0x20 drivers/mtd/nand/built-in.o
 .text.nand_onfi_set_features
                0x000000004001ea08       0x60 drivers/mtd/nand/built-in.o
 .text.nand_write_page
                0x000000004001ea68       0xc4 drivers/mtd/nand/built-in.o
 .text.nand_block_bad
                0x000000004001eb2c      0x1a0 drivers/mtd/nand/built-in.o
 .text.nand_scan_ident
                0x000000004001eccc      0x830 drivers/mtd/nand/built-in.o
                0x000000004001eccc                nand_scan_ident
 .text.nand_select_chip
                0x000000004001f4fc       0x58 drivers/mtd/nand/built-in.o
 .text.nand_scan_tail
                0x000000004001f554      0x628 drivers/mtd/nand/built-in.o
                0x000000004001f554                nand_scan_tail
 .text.nand_scan
                0x000000004001fb7c       0x24 drivers/mtd/nand/built-in.o
                0x000000004001fb7c                nand_scan
 .text.nand_block_checkbad
                0x000000004001fba0       0x80 drivers/mtd/nand/built-in.o
 .text.nand_block_isbad
                0x000000004001fc20       0x1c drivers/mtd/nand/built-in.o
 .text.nand_block_markbad
                0x000000004001fc3c       0x3c drivers/mtd/nand/built-in.o
 .text.nand_onfi_get_features
                0x000000004001fc78       0x68 drivers/mtd/nand/built-in.o
 .text.nand_fill_oob
                0x000000004001fce0      0x128 drivers/mtd/nand/built-in.o
 .text.nand_do_write_oob
                0x000000004001fe08      0x1bc drivers/mtd/nand/built-in.o
 .text.nand_do_write_ops
                0x000000004001ffc4      0x37c drivers/mtd/nand/built-in.o
 .text.nand_write_oob
                0x0000000040020340       0xb8 drivers/mtd/nand/built-in.o
 .text.nand_write
                0x00000000400203f8       0x70 drivers/mtd/nand/built-in.o
 .text.nand_transfer_oob
                0x0000000040020468      0x114 drivers/mtd/nand/built-in.o
 .text.nand_do_read_ops
                0x000000004002057c      0x3d0 drivers/mtd/nand/built-in.o
 .text.nand_read_oob
                0x000000004002094c      0x2bc drivers/mtd/nand/built-in.o
 .text.nand_read
                0x0000000040020c08       0x70 drivers/mtd/nand/built-in.o
 .text.nand_wait
                0x0000000040020c78       0xd4 drivers/mtd/nand/built-in.o
 .text.nand_wait_ready
                0x0000000040020d4c       0x4c drivers/mtd/nand/built-in.o
                0x0000000040020d4c                nand_wait_ready
 .text.nand_command
                0x0000000040020d98      0x1dc drivers/mtd/nand/built-in.o
 .text.nand_command_lp
                0x0000000040020f74      0x268 drivers/mtd/nand/built-in.o
 .text.nand_erase_nand
                0x00000000400211dc      0x398 drivers/mtd/nand/built-in.o
                0x00000000400211dc                nand_erase_nand
 .text.nand_erase
                0x0000000040021574        0x8 drivers/mtd/nand/built-in.o
 .text.nand_default_block_markbad
                0x000000004002157c      0x1c8 drivers/mtd/nand/built-in.o
 .text.nand_isbad_bbt
                0x0000000040021744       0x50 drivers/mtd/nand/built-in.o
                0x0000000040021744                nand_isbad_bbt
 .text.read_bbt
                0x0000000040021794      0x204 drivers/mtd/nand/built-in.o
 .text.read_abs_bbt
                0x0000000040021998       0xc0 drivers/mtd/nand/built-in.o
 .text.scan_read_oob
                0x0000000040021a58       0xc0 drivers/mtd/nand/built-in.o
 .text.scan_read
                0x0000000040021b18       0x5c drivers/mtd/nand/built-in.o
 .text.write_bbt
                0x0000000040021b74      0x680 drivers/mtd/nand/built-in.o
 .text.nand_update_bbt
                0x00000000400221f4      0x110 drivers/mtd/nand/built-in.o
                0x00000000400221f4                nand_update_bbt
 .text.mark_bbt_region
                0x0000000040022304      0x18c drivers/mtd/nand/built-in.o
 .text.verify_bbt_descr
                0x0000000040022490      0x154 drivers/mtd/nand/built-in.o
 .text.check_pattern
                0x00000000400225e4       0xa8 drivers/mtd/nand/built-in.o
 .text.search_bbt
                0x000000004002268c      0x1c4 drivers/mtd/nand/built-in.o
 .text.create_bbt
                0x0000000040022850      0x300 drivers/mtd/nand/built-in.o
 .text.nand_scan_bbt
                0x0000000040022b50      0x4f0 drivers/mtd/nand/built-in.o
                0x0000000040022b50                nand_scan_bbt
 .text.nand_default_bbt
                0x0000000040023040      0x108 drivers/mtd/nand/built-in.o
                0x0000000040023040                nand_default_bbt
 .text.nand_calculate_ecc
                0x0000000040023148       0xf4 drivers/mtd/nand/built-in.o
                0x0000000040023148                nand_calculate_ecc
 .text.nand_correct_data
                0x000000004002323c      0x120 drivers/mtd/nand/built-in.o
                0x000000004002323c                nand_correct_data
 .text.check_skip_len
                0x000000004002335c       0xb0 drivers/mtd/nand/built-in.o
 .text.nand_read_skip_bad
                0x000000004002340c      0x274 drivers/mtd/nand/built-in.o
                0x000000004002340c                nand_read_skip_bad
 .text.nand_write_skip_bad
                0x0000000040023680      0x2cc drivers/mtd/nand/built-in.o
                0x0000000040023680                nand_write_skip_bad
 .text.nand_erase_opts
                0x000000004002394c      0x374 drivers/mtd/nand/built-in.o
                0x000000004002394c                nand_erase_opts
 .text.ubi_get_device
                0x0000000040023cc0       0x20 drivers/mtd/ubi/built-in.o
                0x0000000040023cc0                ubi_get_device
 .text.ubi_put_device
                0x0000000040023ce0       0x10 drivers/mtd/ubi/built-in.o
                0x0000000040023ce0                ubi_put_device
 .text.ubi_mtd_param_parse
                0x0000000040023cf0      0x1b8 drivers/mtd/ubi/built-in.o
                0x0000000040023cf0                ubi_mtd_param_parse
 .text.ubi_detach_mtd_dev
                0x0000000040023ea8       0xec drivers/mtd/ubi/built-in.o
                0x0000000040023ea8                ubi_detach_mtd_dev
 .text.ubi_exit
                0x0000000040023f94       0x48 drivers/mtd/ubi/built-in.o
                0x0000000040023f94                ubi_exit
 .text.ubi_attach_mtd_dev
                0x0000000040023fdc      0x778 drivers/mtd/ubi/built-in.o
                0x0000000040023fdc                ubi_attach_mtd_dev
 .text.ubi_init
                0x0000000040024754      0x170 drivers/mtd/ubi/built-in.o
                0x0000000040024754                ubi_init
 .text.crc32_le
                0x00000000400248c4       0xf0 drivers/mtd/ubi/built-in.o
                0x00000000400248c4                crc32_le
 .text.ubi_eba_close
                0x00000000400249b4       0x40 drivers/mtd/ubi/built-in.o
                0x00000000400249b4                ubi_eba_close
 .text.ubi_eba_init_scan
                0x00000000400249f4      0x248 drivers/mtd/ubi/built-in.o
                0x00000000400249f4                ubi_eba_init_scan
 .text.leb_write_unlock
                0x0000000040024c3c       0x6c drivers/mtd/ubi/built-in.o
 .text.leb_read_unlock
                0x0000000040024ca8       0x6c drivers/mtd/ubi/built-in.o
 .text.ltree_add_entry
                0x0000000040024d14       0xf8 drivers/mtd/ubi/built-in.o
 .text.ubi_eba_copy_leb
                0x0000000040024e0c      0x4a0 drivers/mtd/ubi/built-in.o
                0x0000000040024e0c                ubi_eba_copy_leb
 .text.ubi_eba_unmap_leb
                0x00000000400252ac       0x80 drivers/mtd/ubi/built-in.o
                0x00000000400252ac                ubi_eba_unmap_leb
 .text.ubi_eba_write_leb_st
                0x000000004002532c      0x5c0 drivers/mtd/ubi/built-in.o
                0x000000004002532c                ubi_eba_write_leb_st
 .text.ubi_eba_write_leb
                0x00000000400258ec      0x860 drivers/mtd/ubi/built-in.o
                0x00000000400258ec                ubi_eba_write_leb
 .text.ubi_eba_read_leb
                0x000000004002614c      0x280 drivers/mtd/ubi/built-in.o
                0x000000004002614c                ubi_eba_read_leb
 .text.erase_callback
                0x00000000400263cc        0x4 drivers/mtd/ubi/built-in.o
 .text.ubi_io_mark_bad
                0x00000000400263d0       0x80 drivers/mtd/ubi/built-in.o
                0x00000000400263d0                ubi_io_mark_bad
 .text.ubi_io_is_bad
                0x0000000040026450       0x5c drivers/mtd/ubi/built-in.o
                0x0000000040026450                ubi_io_is_bad
 .text.do_sync_erase
                0x00000000400264ac       0xd8 drivers/mtd/ubi/built-in.o
 .text.ubi_io_write
                0x0000000040026584       0x9c drivers/mtd/ubi/built-in.o
                0x0000000040026584                ubi_io_write
 .text.ubi_io_write_vid_hdr
                0x0000000040026620       0xa0 drivers/mtd/ubi/built-in.o
                0x0000000040026620                ubi_io_write_vid_hdr
 .text.ubi_io_write_ec_hdr
                0x00000000400266c0      0x10c drivers/mtd/ubi/built-in.o
                0x00000000400266c0                ubi_io_write_ec_hdr
 .text.ubi_io_read
                0x00000000400267cc       0xfc drivers/mtd/ubi/built-in.o
                0x00000000400267cc                ubi_io_read
 .text.ubi_io_read_vid_hdr
                0x00000000400268c8      0x4ec drivers/mtd/ubi/built-in.o
                0x00000000400268c8                ubi_io_read_vid_hdr
 .text.ubi_io_read_ec_hdr
                0x0000000040026db4      0x354 drivers/mtd/ubi/built-in.o
                0x0000000040026db4                ubi_io_read_ec_hdr
 .text.ubi_io_sync_erase
                0x0000000040027108      0x1d0 drivers/mtd/ubi/built-in.o
                0x0000000040027108                ubi_io_sync_erase
 .text.ubi_get_volume_info
                0x00000000400272d8       0x80 drivers/mtd/ubi/built-in.o
                0x00000000400272d8                ubi_get_volume_info
 .text.ubi_is_mapped
                0x0000000040027358       0x44 drivers/mtd/ubi/built-in.o
                0x0000000040027358                ubi_is_mapped
 .text.ubi_leb_unmap
                0x000000004002739c       0x60 drivers/mtd/ubi/built-in.o
                0x000000004002739c                ubi_leb_unmap
 .text.ubi_leb_read
                0x00000000400273fc      0x12c drivers/mtd/ubi/built-in.o
                0x00000000400273fc                ubi_leb_read
 .text.ubi_close_volume
                0x0000000040027528       0x64 drivers/mtd/ubi/built-in.o
                0x0000000040027528                ubi_close_volume
 .text.ubi_get_device_info
                0x000000004002758c       0x58 drivers/mtd/ubi/built-in.o
                0x000000004002758c                ubi_get_device_info
 .text.ubi_open_volume
                0x00000000400275e4      0x19c drivers/mtd/ubi/built-in.o
                0x00000000400275e4                ubi_open_volume
 .text.ubi_open_volume_nm
                0x0000000040027780       0xc8 drivers/mtd/ubi/built-in.o
                0x0000000040027780                ubi_open_volume_nm
 .text.ubi_calc_data_len
                0x0000000040027848       0x34 drivers/mtd/ubi/built-in.o
                0x0000000040027848                ubi_calc_data_len
 .text.ubi_calculate_reserved
                0x000000004002787c       0x28 drivers/mtd/ubi/built-in.o
                0x000000004002787c                ubi_calculate_reserved
 .text.ubi_check_volume
                0x00000000400278a4       0xac drivers/mtd/ubi/built-in.o
                0x00000000400278a4                ubi_check_volume
 .text.ubi_scan_find_sv
                0x0000000040027950       0x30 drivers/mtd/ubi/built-in.o
                0x0000000040027950                ubi_scan_find_sv
 .text.ubi_scan_find_seb
                0x0000000040027980       0x30 drivers/mtd/ubi/built-in.o
                0x0000000040027980                ubi_scan_find_seb
 .text.ubi_scan_destroy_si
                0x00000000400279b0      0x1fc drivers/mtd/ubi/built-in.o
                0x00000000400279b0                ubi_scan_destroy_si
 .text.validate_vid_hdr
                0x0000000040027bac      0x110 drivers/mtd/ubi/built-in.o
 .text.add_to_list
                0x0000000040027cbc       0xa8 drivers/mtd/ubi/built-in.o
 .text.ubi_scan_erase_peb
                0x0000000040027d64      0x100 drivers/mtd/ubi/built-in.o
                0x0000000040027d64                ubi_scan_erase_peb
 .text.ubi_scan_get_free_peb
                0x0000000040027e64      0x10c drivers/mtd/ubi/built-in.o
                0x0000000040027e64                ubi_scan_get_free_peb
 .text.ubi_scan_rm_volume
                0x0000000040027f70       0x6c drivers/mtd/ubi/built-in.o
                0x0000000040027f70                ubi_scan_rm_volume
 .text.ubi_scan_add_used
                0x0000000040027fdc      0xa18 drivers/mtd/ubi/built-in.o
                0x0000000040027fdc                ubi_scan_add_used
 .text.ubi_scan
                0x00000000400289f4      0x680 drivers/mtd/ubi/built-in.o
                0x00000000400289f4                ubi_scan
 .text.write_leb
                0x0000000040029074       0xcc drivers/mtd/ubi/built-in.o
 .text.clear_update_marker
                0x0000000040029140       0xec drivers/mtd/ubi/built-in.o
 .text.ubi_more_update_data
                0x000000004002922c      0x280 drivers/mtd/ubi/built-in.o
                0x000000004002922c                ubi_more_update_data
 .text.ubi_start_update
                0x00000000400294ac      0x174 drivers/mtd/ubi/built-in.o
                0x00000000400294ac                ubi_start_update
 .text.ubi_free_volume
                0x0000000040029620       0x14 drivers/mtd/ubi/built-in.o
                0x0000000040029620                ubi_free_volume
 .text.ubi_add_volume
                0x0000000040029634       0x50 drivers/mtd/ubi/built-in.o
                0x0000000040029634                ubi_add_volume
 .text.vol_release
                0x0000000040029684        0x4 drivers/mtd/ubi/built-in.o
 .text.ubi_resize_volume
                0x0000000040029688      0x28c drivers/mtd/ubi/built-in.o
                0x0000000040029688                ubi_resize_volume
 .text.ubi_create_volume
                0x0000000040029914      0x4f0 drivers/mtd/ubi/built-in.o
                0x0000000040029914                ubi_create_volume
 .text.create_vtbl
                0x0000000040029e04      0x378 drivers/mtd/ubi/built-in.o
 .text.vtbl_check
                0x000000004002a17c      0x38c drivers/mtd/ubi/built-in.o
 .text.ubi_read_volume_table
                0x000000004002a508      0x870 drivers/mtd/ubi/built-in.o
                0x000000004002a508                ubi_read_volume_table
 .text.ubi_change_vtbl_record
                0x000000004002ad78       0xe4 drivers/mtd/ubi/built-in.o
                0x000000004002ad78                ubi_change_vtbl_record
 .text.tree_destroy
                0x000000004002ae5c       0x58 drivers/mtd/ubi/built-in.o
 .text.ubi_wl_close
                0x000000004002aeb4       0xd8 drivers/mtd/ubi/built-in.o
                0x000000004002aeb4                ubi_wl_close
 .text.find_wl_entry
                0x000000004002af8c       0x44 drivers/mtd/ubi/built-in.o
 .text.do_work  0x000000004002afd0       0x70 drivers/mtd/ubi/built-in.o
 .text.schedule_erase
                0x000000004002b040       0x6c drivers/mtd/ubi/built-in.o
 .text.ensure_wear_leveling
                0x000000004002b0ac       0xcc drivers/mtd/ubi/built-in.o
 .text.ubi_wl_flush
                0x000000004002b178       0x50 drivers/mtd/ubi/built-in.o
                0x000000004002b178                ubi_wl_flush
 .text.prot_tree_del
                0x000000004002b1c8       0x60 drivers/mtd/ubi/built-in.o
 .text.wl_tree_add
                0x000000004002b228       0x68 drivers/mtd/ubi/built-in.o
 .text.ubi_wl_init_scan
                0x000000004002b290      0x30c drivers/mtd/ubi/built-in.o
                0x000000004002b290                ubi_wl_init_scan
 .text.erase_worker
                0x000000004002b59c      0x3ac drivers/mtd/ubi/built-in.o
 .text.ubi_wl_scrub_peb
                0x000000004002b948      0x164 drivers/mtd/ubi/built-in.o
                0x000000004002b948                ubi_wl_scrub_peb
 .text.ubi_wl_put_peb
                0x000000004002baac      0x17c drivers/mtd/ubi/built-in.o
                0x000000004002baac                ubi_wl_put_peb
 .text.prot_tree_add
                0x000000004002bc28       0xdc drivers/mtd/ubi/built-in.o
 .text.wear_leveling_worker
                0x000000004002bd04      0x310 drivers/mtd/ubi/built-in.o
 .text.ubi_wl_get_peb
                0x000000004002c014      0x17c drivers/mtd/ubi/built-in.o
                0x000000004002c014                ubi_wl_get_peb
 .text.fec_set_hwaddr
                0x000000004002c190       0x7c drivers/net/built-in.o
 .text.fec_mdio_write
                0x000000004002c20c       0x70 drivers/net/built-in.o
 .text.fec_phy_write
                0x000000004002c27c       0x14 drivers/net/built-in.o
                0x000000004002c27c                fec_phy_write
 .text.fec_mdio_read
                0x000000004002c290       0x80 drivers/net/built-in.o
 .text.fec_phy_read
                0x000000004002c310       0x10 drivers/net/built-in.o
                0x000000004002c310                fec_phy_read
 .text.fec_halt
                0x000000004002c320       0x6c drivers/net/built-in.o
 .text.fec_mii_setspeed
                0x000000004002c38c       0x34 drivers/net/built-in.o
 .text.swap_packet
                0x000000004002c3c0       0x54 drivers/net/built-in.o
 .text.fec_send
                0x000000004002c414      0x13c drivers/net/built-in.o
 .text.fec_init
                0x000000004002c550      0x33c drivers/net/built-in.o
 .text.fec_recv
                0x000000004002c88c      0x204 drivers/net/built-in.o
 .text.fec_get_miibus
                0x000000004002ca90       0xa4 drivers/net/built-in.o
                0x000000004002ca90                fec_get_miibus
 .text.fecmxc_initialize_multi
                0x000000004002cb34      0x3f4 drivers/net/built-in.o
                0x000000004002cb34                fecmxc_initialize_multi
 .text.serial_null
                0x000000004002cf28        0x4 drivers/serial/built-in.o
                0x000000004002cf28                jz_serial_initialize
                0x000000004002cf28                bfin_serial_initialize
                0x000000004002cf28                p3mx_serial_initialize
                0x000000004002cf28                leon2_serial_initialize
                0x000000004002cf28                leon3_serial_initialize
                0x000000004002cf28                amirix_serial_initialize
                0x000000004002cf28                marvell_serial_initialize
                0x000000004002cf28                cpci750_serial_initialize
                0x000000004002cf28                ns16550_serial_initialize
                0x000000004002cf28                asc_serial_initialize
                0x000000004002cf28                altera_serial_initialize
                0x000000004002cf28                oc_serial_initialize
                0x000000004002cf28                sh_serial_initialize
                0x000000004002cf28                mxs_auart_initialize
                0x000000004002cf28                arm_dcc_initialize
                0x000000004002cf28                bmw_serial_initialize
                0x000000004002cf28                mcf_serial_initialize
                0x000000004002cf28                lh7a40x_serial_initialize
                0x000000004002cf28                evb64260_serial_initialize
                0x000000004002cf28                lpc32xx_serial_initialize
                0x000000004002cf28                max3100_serial_initialize
                0x000000004002cf28                mpc85xx_serial_initialize
                0x000000004002cf28                imx_serial_initialize
                0x000000004002cf28                ixp_serial_initialize
                0x000000004002cf28                bfin_jtag_initialize
                0x000000004002cf28                cogent_serial_initialize
                0x000000004002cf28                clps7111_serial_initialize
                0x000000004002cf28                ml2_serial_initialize
                0x000000004002cf28                sandbox_serial_initialize
                0x000000004002cf28                s3c24xx_serial_initialize
                0x000000004002cf28                sconsole_serial_initialize
                0x000000004002cf28                uartlite_serial_initialize
                0x000000004002cf28                au1x00_serial_initialize
                0x000000004002cf28                pxa_serial_initialize
                0x000000004002cf28                atmel_serial_initialize
                0x000000004002cf28                altera_jtag_serial_initialize
                0x000000004002cf28                zynq_serial_initalize
                0x000000004002cf28                mpc512x_serial_initialize
                0x000000004002cf28                s5p_serial_initialize
                0x000000004002cf28                ks8695_serial_initialize
                0x000000004002cf28                sa1100_serial_initialize
                0x000000004002cf28                mpc8260_scc_serial_initialize
                0x000000004002cf28                mxc_serial_initialize
                0x000000004002cf28                iop480_serial_initialize
                0x000000004002cf28                mpc8xx_serial_initialize
                0x000000004002cf28                mpc8260_smc_serial_initialize
                0x000000004002cf28                mpc5xx_serial_initialize
 .text.serial_register
                0x000000004002cf2c       0x18 drivers/serial/built-in.o
                0x000000004002cf2c                serial_register
 .text.get_current
                0x000000004002cf44       0x3c drivers/serial/built-in.o
 .text.default_serial_puts
                0x000000004002cf80       0x34 drivers/serial/built-in.o
                0x000000004002cf80                default_serial_puts
 .text.serial_puts
                0x000000004002cfb4       0x1c drivers/serial/built-in.o
                0x000000004002cfb4                serial_puts
 .text.serial_putc
                0x000000004002cfd0       0x1c drivers/serial/built-in.o
                0x000000004002cfd0                serial_putc
 .text.serial_tstc
                0x000000004002cfec       0x14 drivers/serial/built-in.o
                0x000000004002cfec                serial_tstc
 .text.serial_getc
                0x000000004002d000       0x14 drivers/serial/built-in.o
                0x000000004002d000                serial_getc
 .text.serial_setbrg
                0x000000004002d014       0x14 drivers/serial/built-in.o
                0x000000004002d014                serial_setbrg
 .text.on_baudrate
                0x000000004002d028       0xfc drivers/serial/built-in.o
 .text.serial_init
                0x000000004002d124       0x14 drivers/serial/built-in.o
                0x000000004002d124                serial_init
 .text.serial_assign
                0x000000004002d138       0x50 drivers/serial/built-in.o
                0x000000004002d138                serial_assign
 .text.serial_initialize
                0x000000004002d188       0xd0 drivers/serial/built-in.o
                0x000000004002d188                serial_initialize
 .text.serial_stdio_init
                0x000000004002d258       0x90 drivers/serial/built-in.o
                0x000000004002d258                serial_stdio_init
 .text.pl01x_serial_init
                0x000000004002d2e8       0x8c drivers/serial/built-in.o
 .text.pl01x_serial_putc
                0x000000004002d374       0x48 drivers/serial/built-in.o
 .text.pl01x_serial_getc
                0x000000004002d3bc       0x3c drivers/serial/built-in.o
 .text.pl01x_serial_tstc
                0x000000004002d3f8       0x1c drivers/serial/built-in.o
 .text.default_serial_console
                0x000000004002d414        0xc drivers/serial/built-in.o
                0x000000004002d414                default_serial_console
 .text.pl01x_serial_setbrg
                0x000000004002d420       0x38 drivers/serial/built-in.o
 .text.pl01x_serial_initialize
                0x000000004002d458        0xc drivers/serial/built-in.o
                0x000000004002d458                pl01x_serial_initialize
 .text.asix_halt
                0x000000004002d464        0x4 drivers/usb/eth/built-in.o
 .text.asix_eth_before_probe
                0x000000004002d468       0x14 drivers/usb/eth/built-in.o
                0x000000004002d468                asix_eth_before_probe
 .text.asix_read_cmd
                0x000000004002d47c       0x64 drivers/usb/eth/built-in.o
 .text.asix_write_cmd
                0x000000004002d4e0       0x60 drivers/usb/eth/built-in.o
 .text.asix_sw_reset
                0x000000004002d540       0x3c drivers/usb/eth/built-in.o
 .text.asix_mdio_write
                0x000000004002d57c       0x88 drivers/usb/eth/built-in.o
 .text.asix_mdio_read
                0x000000004002d604       0x88 drivers/usb/eth/built-in.o
 .text.asix_eth_get_info
                0x000000004002d68c      0x38c drivers/usb/eth/built-in.o
                0x000000004002d68c                asix_eth_get_info
 .text.asix_write_hwaddr
                0x000000004002da18       0x4c drivers/usb/eth/built-in.o
 .text.asix_send
                0x000000004002da64       0xb0 drivers/usb/eth/built-in.o
 .text.asix_recv
                0x000000004002db14      0x124 drivers/usb/eth/built-in.o
 .text.asix_init
                0x000000004002dc38       0xc4 drivers/usb/eth/built-in.o
 .text.asix_eth_probe
                0x000000004002dcfc      0x1a0 drivers/usb/eth/built-in.o
                0x000000004002dcfc                asix_eth_probe
 .text.smsc95xx_halt
                0x000000004002de9c        0x4 drivers/usb/eth/built-in.o
 .text.smsc95xx_eth_before_probe
                0x000000004002dea0       0x14 drivers/usb/eth/built-in.o
                0x000000004002dea0                smsc95xx_eth_before_probe
 .text.smsc95xx_eth_get_info
                0x000000004002deb4       0x8c drivers/usb/eth/built-in.o
                0x000000004002deb4                smsc95xx_eth_get_info
 .text.smsc95xx_write_reg
                0x000000004002df40       0x70 drivers/usb/eth/built-in.o
 .text.smsc95xx_write_hwaddr
                0x000000004002dfb0       0x74 drivers/usb/eth/built-in.o
 .text.smsc95xx_read_reg
                0x000000004002e024       0x80 drivers/usb/eth/built-in.o
 .text.smsc95xx_send
                0x000000004002e0a4       0xc4 drivers/usb/eth/built-in.o
 .text.smsc95xx_recv
                0x000000004002e168      0x11c drivers/usb/eth/built-in.o
 .text.smsc95xx_phy_wait_not_busy
                0x000000004002e284       0x58 drivers/usb/eth/built-in.o
 .text.smsc95xx_mdio_write
                0x000000004002e2dc       0x54 drivers/usb/eth/built-in.o
 .text.smsc95xx_mdio_read
                0x000000004002e330       0x60 drivers/usb/eth/built-in.o
 .text.smsc95xx_eth_probe
                0x000000004002e390      0x164 drivers/usb/eth/built-in.o
                0x000000004002e390                smsc95xx_eth_probe
 .text.smsc95xx_init
                0x000000004002e4f4      0x658 drivers/usb/eth/built-in.o
 .text.usb_host_eth_scan
                0x000000004002eb4c      0x1d0 drivers/usb/eth/built-in.o
                0x000000004002eb4c                usb_host_eth_scan
 .text.__ehci_get_port_speed
                0x000000004002ed1c        0xc drivers/usb/host/built-in.o
                0x000000004002ed1c                ehci_get_port_speed
                0x000000004002ed1c                __ehci_get_port_speed
 .text.__ehci_set_usbmode
                0x000000004002ed28       0x24 drivers/usb/host/built-in.o
                0x000000004002ed28                __ehci_set_usbmode
                0x000000004002ed28                ehci_set_usbmode
 .text.ehci_get_portsc_register
                0x000000004002ed4c       0x14 drivers/usb/host/built-in.o
                0x000000004002ed4c                ehci_get_portsc_register
 .text.poll_int_queue
                0x000000004002ed60       0x50 drivers/usb/host/built-in.o
                0x000000004002ed60                poll_int_queue
 .text.handshake
                0x000000004002edb0       0x50 drivers/usb/host/built-in.o
 .text.disable_periodic
                0x000000004002ee00       0x48 drivers/usb/host/built-in.o
 .text.enable_periodic
                0x000000004002ee48       0x54 drivers/usb/host/built-in.o
 .text.destroy_int_queue
                0x000000004002ee9c       0xd4 drivers/usb/host/built-in.o
                0x000000004002ee9c                destroy_int_queue
 .text.create_int_queue
                0x000000004002ef70      0x340 drivers/usb/host/built-in.o
                0x000000004002ef70                create_int_queue
 .text.submit_int_msg
                0x000000004002f2b0       0xf0 drivers/usb/host/built-in.o
                0x000000004002f2b0                submit_int_msg
 .text.ehci_td_buffer
                0x000000004002f3a0       0x7c drivers/usb/host/built-in.o
 .text.ehci_submit_async
                0x000000004002f41c      0x5d8 drivers/usb/host/built-in.o
 .text.submit_bulk_msg
                0x000000004002f9f4       0x24 drivers/usb/host/built-in.o
                0x000000004002f9f4                submit_bulk_msg
 .text.usb_lowlevel_init
                0x000000004002fa18      0x2bc drivers/usb/host/built-in.o
                0x000000004002fa18                usb_lowlevel_init
 .text.__ehci_powerup_fixup
                0x000000004002fcd4        0x8 drivers/usb/host/built-in.o
                0x000000004002fcd4                ehci_powerup_fixup
                0x000000004002fcd4                __ehci_powerup_fixup
 .text.ehci_shutdown
                0x000000004002fcdc       0x9c drivers/usb/host/built-in.o
 .text.usb_lowlevel_stop
                0x000000004002fd78       0x28 drivers/usb/host/built-in.o
                0x000000004002fd78                usb_lowlevel_stop
 .text.ehci_submit_root
                0x000000004002fda0      0x504 drivers/usb/host/built-in.o
                0x000000004002fda0                ehci_submit_root
 .text.submit_control_msg
                0x00000000400302a4       0x68 drivers/usb/host/built-in.o
                0x00000000400302a4                submit_control_msg
 .text.ehci_hcd_stop
                0x000000004003030c       0x7c drivers/usb/host/built-in.o
                0x000000004003030c                ehci_hcd_stop
 .text.ehci_hcd_init
                0x0000000040030388       0xa0 drivers/usb/host/built-in.o
                0x0000000040030388                ehci_hcd_init
 .text.disk_read
                0x0000000040030428       0x54 fs/built-in.o
 .text.get_fatent
                0x000000004003047c      0x178 fs/built-in.o
 .text.fat_close
                0x00000000400305f4        0x4 fs/built-in.o
                0x00000000400305f4                fat_close
 .text.get_name
                0x00000000400305f8       0xec fs/built-in.o
 .text.read_bootsectandvi
                0x00000000400306e4      0x12c fs/built-in.o
 .text.file_fat_detectfs
                0x0000000040030810      0x154 fs/built-in.o
                0x0000000040030810                file_fat_detectfs
 .text.get_cluster
                0x0000000040030964      0x178 fs/built-in.o
 .text.get_vfatname
                0x0000000040030adc      0x2c0 fs/built-in.o
 .text.do_fat_read_at
                0x0000000040030d9c      0xc84 fs/built-in.o
                0x0000000040030d9c                do_fat_read_at
 .text.file_fat_read_at
                0x0000000040031a20       0x44 fs/built-in.o
                0x0000000040031a20                file_fat_read_at
 .text.fat_read_file
                0x0000000040031a64       0x3c fs/built-in.o
                0x0000000040031a64                fat_read_file
 .text.do_fat_read
                0x0000000040031aa0       0x20 fs/built-in.o
                0x0000000040031aa0                do_fat_read
 .text.file_fat_ls
                0x0000000040031ac0       0x10 fs/built-in.o
                0x0000000040031ac0                file_fat_ls
 .text.fat_set_blk_dev
                0x0000000040031ad0       0xd8 fs/built-in.o
                0x0000000040031ad0                fat_set_blk_dev
 .text.fs_ls_unsupported
                0x0000000040031ba8        0x8 fs/built-in.o
 .text.fs_read_unsupported
                0x0000000040031bb0        0x8 fs/built-in.o
 .text.fs_write_unsupported
                0x0000000040031bb8        0x8 fs/built-in.o
 .text.fs_close_unsupported
                0x0000000040031bc0        0x4 fs/built-in.o
 .text.fs_close
                0x0000000040031bc4       0x3c fs/built-in.o
 .text.fs_ls    0x0000000040031c00       0x48 fs/built-in.o
                0x0000000040031c00                fs_ls
 .text.fs_probe_unsupported
                0x0000000040031c48       0x18 fs/built-in.o
 .text.fs_read  0x0000000040031c60       0x7c fs/built-in.o
                0x0000000040031c60                fs_read
 .text.fs_set_blk_dev
                0x0000000040031cdc       0x9c fs/built-in.o
                0x0000000040031cdc                fs_set_blk_dev
 .text.do_ls    0x0000000040031d78       0x68 fs/built-in.o
                0x0000000040031d78                do_ls
 .text.do_load  0x0000000040031de0      0x1c8 fs/built-in.o
                0x0000000040031de0                do_load
 .text.ubifs_reported_space
                0x0000000040031fa8       0x70 fs/built-in.o
                0x0000000040031fa8                ubifs_reported_space
 .text.ubifs_calc_min_idx_lebs
                0x0000000040032018       0x94 fs/built-in.o
                0x0000000040032018                ubifs_calc_min_idx_lebs
 .text.crc16    0x00000000400320ac       0x40 fs/built-in.o
                0x00000000400320ac                crc16
 .text.ubifs_check_node
                0x00000000400320ec      0x1d0 fs/built-in.o
                0x00000000400320ec                ubifs_check_node
 .text.ubifs_read_node
                0x00000000400322bc      0x150 fs/built-in.o
                0x00000000400322bc                ubifs_read_node
 .text.ubifs_pad
                0x000000004003240c       0xf4 fs/built-in.o
                0x000000004003240c                ubifs_pad
 .text.ubifs_search_bud
                0x0000000040032500       0x34 fs/built-in.o
                0x0000000040032500                ubifs_search_bud
 .text.ubifs_add_bud
                0x0000000040032534       0xac fs/built-in.o
                0x0000000040032534                ubifs_add_bud
 .text.move_up_lpt_heap
                0x00000000400325e0       0x80 fs/built-in.o
 .text.adjust_lpt_heap
                0x0000000040032660      0x1a4 fs/built-in.o
 .text.ubifs_add_to_cat
                0x0000000040032804      0x1b4 fs/built-in.o
                0x0000000040032804                ubifs_add_to_cat
 .text.ubifs_remove_from_cat
                0x00000000400329b8       0xac fs/built-in.o
 .text.ubifs_replace_cat
                0x0000000040032a64       0x64 fs/built-in.o
                0x0000000040032a64                ubifs_replace_cat
 .text.ubifs_categorize_lprops
                0x0000000040032ac8       0x90 fs/built-in.o
                0x0000000040032ac8                ubifs_categorize_lprops
 .text.ubifs_change_lp
                0x0000000040032b58      0x31c fs/built-in.o
                0x0000000040032b58                ubifs_change_lp
 .text.ubifs_update_one_lp
                0x0000000040032e74       0x64 fs/built-in.o
                0x0000000040032e74                ubifs_update_one_lp
 .text.generic_fls
                0x0000000040032ed8       0x54 fs/built-in.o
 .text.generic_set_bit
                0x0000000040032f2c       0x70 fs/built-in.o
 .text.ubifs_unpack_bits
                0x0000000040032f9c      0x148 fs/built-in.o
                0x0000000040032f9c                ubifs_unpack_bits
 .text.ubifs_add_nnode_dirt
                0x00000000400330e4       0xc0 fs/built-in.o
                0x00000000400330e4                ubifs_add_nnode_dirt
 .text.check_lpt_type
                0x00000000400331a4       0x44 fs/built-in.o
 .text.check_lpt_crc
                0x00000000400331e8       0x80 fs/built-in.o
 .text.ubifs_lpt_init
                0x0000000040033268      0x1e4 fs/built-in.o
                0x0000000040033268                ubifs_lpt_init
 .text.ubifs_unpack_nnode
                0x000000004003344c       0xcc fs/built-in.o
                0x000000004003344c                ubifs_unpack_nnode
 .text.ubifs_read_nnode
                0x0000000040033518      0x278 fs/built-in.o
                0x0000000040033518                ubifs_read_nnode
 .text.ubifs_get_nnode
                0x0000000040033790       0x2c fs/built-in.o
                0x0000000040033790                ubifs_get_nnode
 .text.ubifs_get_pnode
                0x00000000400337bc      0x428 fs/built-in.o
                0x00000000400337bc                ubifs_get_pnode
 .text.ubifs_calc_lpt_geom
                0x0000000040033be4      0x39c fs/built-in.o
                0x0000000040033be4                ubifs_calc_lpt_geom
 .text.dirty_cow_nnode
                0x0000000040033f80      0x110 fs/built-in.o
 .text.ubifs_lpt_lookup_dirty
                0x0000000040034090      0x25c fs/built-in.o
                0x0000000040034090                ubifs_lpt_lookup_dirty
 .text.ubifs_lpt_free
                0x00000000400342ec      0x224 fs/built-in.o
                0x00000000400342ec                ubifs_lpt_free
 .text.ubifs_read_master
                0x0000000040034510      0xccc fs/built-in.o
                0x0000000040034510                ubifs_read_master
 .text.ubifs_clear_orphans
                0x00000000400351dc       0x88 fs/built-in.o
                0x00000000400351dc                ubifs_clear_orphans
 .text.ubifs_mount_orphans
                0x0000000040035264      0x408 fs/built-in.o
                0x0000000040035264                ubifs_mount_orphans
 .text.is_last_write
                0x000000004003566c       0x98 fs/built-in.o
 .text.ubifs_recover_size
                0x0000000040035704      0x1a8 fs/built-in.o
                0x0000000040035704                ubifs_recover_size
 .text.add_ino  0x00000000400358ac       0x98 fs/built-in.o
 .text.ubifs_recover_size_accum
                0x0000000040035944      0x188 fs/built-in.o
                0x0000000040035944                ubifs_recover_size_accum
 .text.get_master_node
                0x0000000040035acc      0x228 fs/built-in.o
 .text.clean_buf
                0x0000000040035cf4       0x88 fs/built-in.o
 .text.ubifs_recover_leb
                0x0000000040035d7c      0x534 fs/built-in.o
                0x0000000040035d7c                ubifs_recover_leb
 .text.ubifs_recover_log_leb
                0x00000000400362b0      0x240 fs/built-in.o
                0x00000000400362b0                ubifs_recover_log_leb
 .text.ubifs_recover_master_node
                0x00000000400364f0      0x1c0 fs/built-in.o
                0x00000000400364f0                ubifs_recover_master_node
 .text.insert_node
                0x00000000400366b0      0x158 fs/built-in.o
 .text.ubifs_validate_entry
                0x0000000040036808      0x110 fs/built-in.o
                0x0000000040036808                ubifs_validate_entry
 .text.ubifs_replay_journal
                0x0000000040036918     0x10f4 fs/built-in.o
                0x0000000040036918                ubifs_replay_journal
 .text.key_test_hash
                0x0000000040037a0c       0x3c fs/built-in.o
 .text.key_r5_hash
                0x0000000040037a48       0x48 fs/built-in.o
 .text.ubifs_read_sb_node
                0x0000000040037a90       0x68 fs/built-in.o
                0x0000000040037a90                ubifs_read_sb_node
 .text.ubifs_read_superblock
                0x0000000040037af8      0x798 fs/built-in.o
                0x0000000040037af8                ubifs_read_superblock
 .text.ubifs_end_scan
                0x0000000040038290       0x1c fs/built-in.o
                0x0000000040038290                ubifs_end_scan
 .text.ubifs_scan_destroy
                0x00000000400382ac       0x4c fs/built-in.o
                0x00000000400382ac                ubifs_scan_destroy
 .text.ubifs_scanned_corruption
                0x00000000400382f8       0x28 fs/built-in.o
                0x00000000400382f8                ubifs_scanned_corruption
 .text.ubifs_add_snod
                0x0000000040038320       0xdc fs/built-in.o
                0x0000000040038320                ubifs_add_snod
 .text.ubifs_start_scan
                0x00000000400383fc       0xd0 fs/built-in.o
                0x00000000400383fc                ubifs_start_scan
 .text.ubifs_scan_a_node
                0x00000000400384cc      0x15c fs/built-in.o
                0x00000000400384cc                ubifs_scan_a_node
 .text.ubifs_scan
                0x0000000040038628      0x1b8 fs/built-in.o
                0x0000000040038628                ubifs_scan
 .text.sb_set   0x00000000400387e0       0x10 fs/built-in.o
 .text.sb_test  0x00000000400387f0       0x18 fs/built-in.o
 .text.free_orphans
                0x0000000040038808       0x90 fs/built-in.o
 .text.ubifs_iput
                0x0000000040038898       0x2c fs/built-in.o
                0x0000000040038898                ubifs_iput
 .text.iget_locked
                0x00000000400388c4       0x4c fs/built-in.o
                0x00000000400388c4                iget_locked
 .text.ubifs_umount
                0x0000000040038910       0x8c fs/built-in.o
                0x0000000040038910                ubifs_umount
 .text.ubifs_init
                0x000000004003899c        0x4 fs/built-in.o
                0x000000004003899c                ubifs_init
 .text.iput     0x00000000400389a0       0x70 fs/built-in.o
                0x00000000400389a0                iput
 .text.ubifs_iget
                0x0000000040038a10      0x43c fs/built-in.o
                0x0000000040038a10                ubifs_iget
 .text.sget     0x0000000040038e4c       0x94 fs/built-in.o
                0x0000000040038e4c                sget
 .text.ubifs_get_sb
                0x0000000040038ee0      0xcfc fs/built-in.o
 .text.ubifs_mount
                0x0000000040039bdc       0xb0 fs/built-in.o
                0x0000000040039bdc                ubifs_mount
 .text.insert_zbranch
                0x0000000040039c8c       0xfc fs/built-in.o
 .text.lnc_free
                0x0000000040039d88       0x24 fs/built-in.o
 .text.tnc_prev
                0x0000000040039dac       0xec fs/built-in.o
 .text.tnc_next
                0x0000000040039e98       0xd4 fs/built-in.o
 .text.matches_name
                0x0000000040039f6c       0xcc fs/built-in.o
 .text.resolve_collision
                0x000000004003a038      0x1d4 fs/built-in.o
 .text.tnc_read_node_nm
                0x000000004003a20c       0x7c fs/built-in.o
 .text.insert_old_idx
                0x000000004003a288       0xc4 fs/built-in.o
 .text.insert_old_idx_znode
                0x000000004003a34c       0x50 fs/built-in.o
                0x000000004003a34c                insert_old_idx_znode
 .text.dirty_cow_znode
                0x000000004003a39c      0x19c fs/built-in.o
 .text.tnc_delete
                0x000000004003a538      0x240 fs/built-in.o
 .text.ubifs_lookup_level0
                0x000000004003a778      0x170 fs/built-in.o
                0x000000004003a778                ubifs_lookup_level0
 .text.ubifs_tnc_next_ent
                0x000000004003a8e8      0x118 fs/built-in.o
                0x000000004003a8e8                ubifs_tnc_next_ent
 .text.fallible_read_node
                0x000000004003aa00      0x174 fs/built-in.o
 .text.fallible_matches_name
                0x000000004003ab74       0xd8 fs/built-in.o
 .text.fallible_resolve_collision
                0x000000004003ac4c      0x2b0 fs/built-in.o
 .text.ubifs_tnc_locate
                0x000000004003aefc      0x100 fs/built-in.o
                0x000000004003aefc                ubifs_tnc_locate
 .text.tnc_insert
                0x000000004003affc      0x4e8 fs/built-in.o
 .text.dirty_cow_bottom_up
                0x000000004003b4e4       0xf8 fs/built-in.o
 .text.lookup_level0_dirty
                0x000000004003b5dc      0x1e4 fs/built-in.o
 .text.ubifs_tnc_remove
                0x000000004003b7c0       0x38 fs/built-in.o
                0x000000004003b7c0                ubifs_tnc_remove
 .text.ubifs_tnc_add
                0x000000004003b7f8       0xcc fs/built-in.o
                0x000000004003b7f8                ubifs_tnc_add
 .text.ubifs_tnc_remove_nm
                0x000000004003b8c4       0xc8 fs/built-in.o
                0x000000004003b8c4                ubifs_tnc_remove_nm
 .text.ubifs_tnc_add_nm
                0x000000004003b98c      0x1c0 fs/built-in.o
                0x000000004003b98c                ubifs_tnc_add_nm
 .text.ubifs_tnc_remove_range
                0x000000004003bb4c      0x264 fs/built-in.o
                0x000000004003bb4c                ubifs_tnc_remove_range
 .text.ubifs_tnc_remove_ino
                0x000000004003bdb0      0x150 fs/built-in.o
                0x000000004003bdb0                ubifs_tnc_remove_ino
 .text.ubifs_search_zbranch
                0x000000004003bf00       0x78 fs/built-in.o
                0x000000004003bf00                ubifs_search_zbranch
 .text.ubifs_tnc_read_node
                0x000000004003bf78       0x84 fs/built-in.o
                0x000000004003bf78                ubifs_tnc_read_node
 .text.ubifs_load_znode
                0x000000004003bffc      0x308 fs/built-in.o
                0x000000004003bffc                ubifs_load_znode
 .text.ubifs_compressors_init
                0x000000004003c304       0x44 fs/built-in.o
                0x000000004003c304                ubifs_compressors_init
 .text.ubifs_findfile
                0x000000004003c348      0x394 fs/built-in.o
 .text.ubifs_ls
                0x000000004003c6dc      0x568 fs/built-in.o
                0x000000004003c6dc                ubifs_ls
 .text.gzip_decompress
                0x000000004003cc44       0x28 fs/built-in.o
 .text.ubifs_decompress
                0x000000004003cc6c       0xc4 fs/built-in.o
                0x000000004003cc6c                ubifs_decompress
 .text.read_block
                0x000000004003cd30      0x144 fs/built-in.o
 .text.ubifs_load
                0x000000004003ce74      0x324 fs/built-in.o
                0x000000004003ce74                ubifs_load
 .text.cyg_crc16
                0x000000004003d198       0x48 lib/built-in.o
                0x000000004003d198                cyg_crc16
 .text.crc32_no_comp
                0x000000004003d1e0       0xec lib/built-in.o
                0x000000004003d1e0                crc32_no_comp
 .text.crc32    0x000000004003d2cc       0x14 lib/built-in.o
                0x000000004003d2cc                crc32
 .text.crc32_wd
                0x000000004003d2e0        0x4 lib/built-in.o
                0x000000004003d2e0                crc32_wd
 .text.print_size
                0x000000004003d2e4      0x144 lib/built-in.o
                0x000000004003d2e4                print_size
 .text.print_buffer
                0x000000004003d428      0x1b4 lib/built-in.o
                0x000000004003d428                print_buffer
 .text.__div64_32
                0x000000004003d5dc       0xf4 lib/built-in.o
                0x000000004003d5dc                __div64_32
 .text.zunzip   0x000000004003d6d0      0x124 lib/built-in.o
                0x000000004003d6d0                zunzip
 .text.gunzip   0x000000004003d7f4       0xb4 lib/built-in.o
                0x000000004003d7f4                gunzip
 .text.gzfree   0x000000004003d8a8        0x8 lib/built-in.o
                0x000000004003d8a8                gzfree
 .text.gzalloc  0x000000004003d8b0       0x10 lib/built-in.o
                0x000000004003d8b0                gzalloc
 .text.hang     0x000000004003d8c0       0x18 lib/built-in.o
                0x000000004003d8c0                hang
 .text.hwalk_r  0x000000004003d8d8       0x58 lib/built-in.o
                0x000000004003d8d8                hwalk_r
 .text._hdelete
                0x000000004003d930       0x50 lib/built-in.o
 .text.hdestroy_r
                0x000000004003d980       0x74 lib/built-in.o
                0x000000004003d980                hdestroy_r
 .text.cmpkey   0x000000004003d9f4       0x14 lib/built-in.o
 .text.hcreate_r
                0x000000004003da08       0xa8 lib/built-in.o
                0x000000004003da08                hcreate_r
 .text.match_string
                0x000000004003dab0       0x60 lib/built-in.o
 .text.hexport_r
                0x000000004003db10      0x36c lib/built-in.o
                0x000000004003db10                hexport_r
 .text.hsearch_r
                0x000000004003de7c      0x51c lib/built-in.o
                0x000000004003de7c                hsearch_r
 .text.hdelete_r
                0x000000004003e398       0xf0 lib/built-in.o
                0x000000004003e398                hdelete_r
 .text.himport_r
                0x000000004003e488      0x404 lib/built-in.o
                0x000000004003e488                himport_r
 .text.hmatch_r
                0x000000004003e88c       0xa0 lib/built-in.o
                0x000000004003e88c                hmatch_r
 .text.strim    0x000000004003e92c       0x74 lib/built-in.o
                0x000000004003e92c                strim
 .text.lmb_init
                0x000000004003e9a0       0x28 lib/built-in.o
                0x000000004003e9a0                lmb_init
 .text.lmb_add_region
                0x000000004003e9c8      0x1cc lib/built-in.o
 .text.lmb_add  0x000000004003eb94        0x4 lib/built-in.o
                0x000000004003eb94                lmb_add
 .text.lmb_free
                0x000000004003eb98      0x120 lib/built-in.o
                0x000000004003eb98                lmb_free
 .text.lmb_reserve
                0x000000004003ecb8        0x8 lib/built-in.o
                0x000000004003ecb8                lmb_reserve
 .text.__lmb_alloc_base
                0x000000004003ecc0      0x158 lib/built-in.o
                0x000000004003ecc0                __lmb_alloc_base
 .text.__board_lmb_reserve
                0x000000004003ee18        0x4 lib/built-in.o
                0x000000004003ee18                board_lmb_reserve
                0x000000004003ee18                __board_lmb_reserve
 .text.lmb_alloc_base
                0x000000004003ee1c       0x34 lib/built-in.o
                0x000000004003ee1c                lmb_alloc_base
 .text.lmb_alloc
                0x000000004003ee50        0x8 lib/built-in.o
                0x000000004003ee50                lmb_alloc
 .text.lzo1x_decompress_safe
                0x000000004003ee58      0x6f4 lib/built-in.o
                0x000000004003ee58                lzo1x_decompress_safe
 .text.lzop_decompress
                0x000000004003f54c      0x164 lib/built-in.o
                0x000000004003f54c                lzop_decompress
 .text.string_to_ip
                0x000000004003f6b0       0x7c lib/built-in.o
                0x000000004003f6b0                string_to_ip
 .text.qsort    0x000000004003f72c      0x138 lib/built-in.o
                0x000000004003f72c                qsort
 .text.strcmp_compar
                0x000000004003f864        0xc lib/built-in.o
                0x000000004003f864                strcmp_compar
 .text.__rb_rotate_left
                0x000000004003f870       0x70 lib/built-in.o
 .text.__rb_rotate_right
                0x000000004003f8e0       0x70 lib/built-in.o
 .text.rb_insert_color
                0x000000004003f950      0x12c lib/built-in.o
                0x000000004003f950                rb_insert_color
 .text.rb_erase
                0x000000004003fa7c      0x364 lib/built-in.o
                0x000000004003fa7c                rb_erase
 .text.rb_first
                0x000000004003fde0       0x20 lib/built-in.o
                0x000000004003fde0                rb_first
 .text.rb_last  0x000000004003fe00       0x20 lib/built-in.o
                0x000000004003fe00                rb_last
 .text.rb_next  0x000000004003fe20       0x5c lib/built-in.o
                0x000000004003fe20                rb_next
 .text.strcpy   0x000000004003fe7c       0x1c lib/built-in.o
                0x000000004003fe7c                strcpy
 .text.strncpy  0x000000004003fe98       0x28 lib/built-in.o
                0x000000004003fe98                strncpy
 .text.strcat   0x000000004003fec0       0x30 lib/built-in.o
                0x000000004003fec0                strcat
 .text.strncat  0x000000004003fef0       0x5c lib/built-in.o
                0x000000004003fef0                strncat
 .text.strcmp   0x000000004003ff4c       0x30 lib/built-in.o
                0x000000004003ff4c                strcmp
 .text.strncmp  0x000000004003ff7c       0x48 lib/built-in.o
                0x000000004003ff7c                strncmp
 .text.strchr   0x000000004003ffc4       0x2c lib/built-in.o
                0x000000004003ffc4                strchr
 .text.strlen   0x000000004003fff0       0x20 lib/built-in.o
                0x000000004003fff0                strlen
 .text.strnlen  0x0000000040040010       0x28 lib/built-in.o
                0x0000000040040010                strnlen
 .text.strpbrk  0x0000000040040038       0x38 lib/built-in.o
                0x0000000040040038                strpbrk
 .text.strsep   0x0000000040040070       0x64 lib/built-in.o
                0x0000000040040070                strsep
 .text.memset   0x00000000400400d4       0x74 lib/built-in.o
                0x00000000400400d4                memset
 .text.memcpy   0x0000000040040148       0x74 lib/built-in.o
                0x0000000040040148                memcpy
 .text.memmove  0x00000000400401bc       0x64 lib/built-in.o
                0x00000000400401bc                memmove
 .text.memcmp   0x0000000040040220       0x38 lib/built-in.o
                0x0000000040040220                memcmp
 .text.strstr   0x0000000040040258       0x80 lib/built-in.o
                0x0000000040040258                strstr
 .text.memchr   0x00000000400402d8       0x2c lib/built-in.o
                0x00000000400402d8                memchr
 .text.memchr_inv
                0x0000000040040304      0x128 lib/built-in.o
                0x0000000040040304                memchr_inv
 .text.strdup   0x000000004004042c       0x58 lib/built-in.o
                0x000000004004042c                strdup
 .text.udelay   0x0000000040040484       0x30 lib/built-in.o
                0x0000000040040484                udelay
 .text.mdelay   0x00000000400404b4       0x24 lib/built-in.o
                0x00000000400404b4                mdelay
 .text.simple_strtoul
                0x00000000400404d8       0xb0 lib/built-in.o
                0x00000000400404d8                simple_strtoul
 .text.simple_strtol
                0x0000000040040588       0x28 lib/built-in.o
                0x0000000040040588                simple_strtol
 .text.simple_strtoull
                0x00000000400405b0       0xd4 lib/built-in.o
                0x00000000400405b0                simple_strtoull
 .text.put_dec_trunc
                0x0000000040040684       0xdc lib/built-in.o
 .text.simple_itoa
                0x0000000040040760       0x58 lib/built-in.o
                0x0000000040040760                simple_itoa
 .text.panic    0x00000000400407b8       0x48 lib/built-in.o
                0x00000000400407b8                panic
 .text.string   0x0000000040040800       0xa8 lib/built-in.o
 .text.put_dec  0x00000000400408a8      0x134 lib/built-in.o
 .text.number   0x00000000400409dc      0x24c lib/built-in.o
 .text.strict_strtoul
                0x0000000040040c28       0x78 lib/built-in.o
                0x0000000040040c28                strict_strtoul
 .text.vsprintf
                0x0000000040040ca0      0x668 lib/built-in.o
                0x0000000040040ca0                vsprintf
 .text.sprintf  0x0000000040041308       0x28 lib/built-in.o
                0x0000000040041308                sprintf
 .text.inflate_fast
                0x0000000040041330      0x568 lib/built-in.o
                0x0000000040041330                inflate_fast
 .text.inflate_table
                0x0000000040041898      0x590 lib/built-in.o
                0x0000000040041898                inflate_table
 .text.inflateReset
                0x0000000040041e28       0x78 lib/built-in.o
                0x0000000040041e28                inflateReset
 .text.inflateInit2_
                0x0000000040041ea0      0x100 lib/built-in.o
                0x0000000040041ea0                inflateInit2_
 .text.inflateEnd
                0x0000000040041fa0       0x64 lib/built-in.o
                0x0000000040041fa0                inflateEnd
 .text.adler32  0x0000000040042004      0x310 lib/built-in.o
                0x0000000040042004                adler32
 .text.zcfree   0x0000000040042314        0x8 lib/built-in.o
                0x0000000040042314                zcfree
 .text.zcalloc  0x000000004004231c        0x8 lib/built-in.o
                0x000000004004231c                zcalloc
 .text.inflate  0x0000000040042324     0x172c lib/built-in.o
                0x0000000040042324                inflate
 .text.fdt_offset_ptr
                0x0000000040043a50       0x88 lib/libfdt/built-in.o
                0x0000000040043a50                fdt_offset_ptr
 .text.fdt_next_tag
                0x0000000040043ad8      0x120 lib/libfdt/built-in.o
                0x0000000040043ad8                fdt_next_tag
 .text._fdt_check_prop_offset
                0x0000000040043bf8       0x34 lib/libfdt/built-in.o
                0x0000000040043bf8                _fdt_check_prop_offset
 .text._fdt_check_node_offset
                0x0000000040043c2c       0x34 lib/libfdt/built-in.o
                0x0000000040043c2c                _fdt_check_node_offset
 .text.fdt_next_node
                0x0000000040043c60       0xb8 lib/libfdt/built-in.o
                0x0000000040043c60                fdt_next_node
 .text.fdt_check_header
                0x0000000040043d18       0xc4 lib/libfdt/built-in.o
                0x0000000040043d18                fdt_check_header
 .text.fdt_move
                0x0000000040043ddc       0x58 lib/libfdt/built-in.o
                0x0000000040043ddc                fdt_move
 .text._fdt_find_string
                0x0000000040043e34       0x5c lib/libfdt/built-in.o
                0x0000000040043e34                _fdt_find_string
 .text.fdt_supernode_atdepth_offset
                0x0000000040043e90       0xc0 lib/libfdt/built-in.o
                0x0000000040043e90                fdt_supernode_atdepth_offset
 .text.fdt_node_depth
                0x0000000040043f50       0x24 lib/libfdt/built-in.o
                0x0000000040043f50                fdt_node_depth
 .text.fdt_num_mem_rsv
                0x0000000040043f74       0x88 lib/libfdt/built-in.o
                0x0000000040043f74                fdt_num_mem_rsv
 .text.fdt_get_mem_rsv
                0x0000000040043ffc       0xd8 lib/libfdt/built-in.o
                0x0000000040043ffc                fdt_get_mem_rsv
 .text.fdt_string
                0x00000000400440d4       0x28 lib/libfdt/built-in.o
                0x00000000400440d4                fdt_string
 .text.fdt_get_property_by_offset
                0x00000000400440fc       0x80 lib/libfdt/built-in.o
                0x00000000400440fc                fdt_get_property_by_offset
 .text.fdt_next_property_offset
                0x000000004004417c       0x5c lib/libfdt/built-in.o
                0x000000004004417c                fdt_next_property_offset
 .text.fdt_first_property_offset
                0x00000000400441d8       0x5c lib/libfdt/built-in.o
                0x00000000400441d8                fdt_first_property_offset
 .text.fdt_get_property_namelen
                0x0000000040044234       0xbc lib/libfdt/built-in.o
                0x0000000040044234                fdt_get_property_namelen
 .text.fdt_getprop_namelen
                0x00000000400442f0       0x1c lib/libfdt/built-in.o
                0x00000000400442f0                fdt_getprop_namelen
 .text.fdt_getprop
                0x000000004004430c       0x38 lib/libfdt/built-in.o
                0x000000004004430c                fdt_getprop
 .text.fdt_get_property
                0x0000000040044344       0x38 lib/libfdt/built-in.o
                0x0000000040044344                fdt_get_property
 .text.fdt_get_name
                0x000000004004437c       0x84 lib/libfdt/built-in.o
                0x000000004004437c                fdt_get_name
 .text.fdt_subnode_offset_namelen
                0x0000000040044400       0xcc lib/libfdt/built-in.o
                0x0000000040044400                fdt_subnode_offset_namelen
 .text.fdt_path_offset
                0x00000000400444cc       0xe0 lib/libfdt/built-in.o
                0x00000000400444cc                fdt_path_offset
 .text.fdt_get_alias_namelen
                0x00000000400445ac       0x44 lib/libfdt/built-in.o
                0x00000000400445ac                fdt_get_alias_namelen
 .text._fdt_blocks_misordered
                0x00000000400445f0       0xcc lib/libfdt/built-in.o
 .text._fdt_rw_check_header
                0x00000000400446bc       0xa0 lib/libfdt/built-in.o
 .text._fdt_packblocks
                0x000000004004475c      0x148 lib/libfdt/built-in.o
 .text._fdt_splice
                0x00000000400448a4       0xb0 lib/libfdt/built-in.o
 .text._fdt_splice_struct
                0x0000000040044954       0x9c lib/libfdt/built-in.o
 .text._fdt_splice_mem_rsv
                0x00000000400449f0       0xa8 lib/libfdt/built-in.o
 .text.fdt_del_mem_rsv
                0x0000000040044a98       0x6c lib/libfdt/built-in.o
                0x0000000040044a98                fdt_del_mem_rsv
 .text.fdt_add_mem_rsv
                0x0000000040044b04      0x130 lib/libfdt/built-in.o
                0x0000000040044b04                fdt_add_mem_rsv
 .text.fdt_open_into
                0x0000000040044c34      0x23c lib/libfdt/built-in.o
                0x0000000040044c34                fdt_open_into
 .text.fdt_del_node
                0x0000000040044e70       0x70 lib/libfdt/built-in.o
                0x0000000040044e70                fdt_del_node
 .text.fdt_add_subnode_namelen
                0x0000000040044ee0      0x114 lib/libfdt/built-in.o
                0x0000000040044ee0                fdt_add_subnode_namelen
 .text.fdt_add_subnode
                0x0000000040044ff4       0x30 lib/libfdt/built-in.o
                0x0000000040044ff4                fdt_add_subnode
 .text.fdt_delprop
                0x0000000040045024       0x64 lib/libfdt/built-in.o
                0x0000000040045024                fdt_delprop
 .text._fdt_add_property
                0x0000000040045088      0x1d4 lib/libfdt/built-in.o
 .text.fdt_setprop
                0x000000004004525c       0xe8 lib/libfdt/built-in.o
                0x000000004004525c                fdt_setprop
 .text.fdt_strerror
                0x0000000040045344       0x4c lib/libfdt/built-in.o
                0x0000000040045344                fdt_strerror
 .text._fdt_node_end_offset
                0x0000000040045390       0x48 lib/libfdt/built-in.o
                0x0000000040045390                _fdt_node_end_offset
 .text.ArpInit  0x00000000400453d8       0x50 net/built-in.o
                0x00000000400453d8                ArpInit
 .text.ArpReceive
                0x0000000040045428      0x22c net/built-in.o
                0x0000000040045428                ArpReceive
 .text.arp_raw_request
                0x0000000040045654       0xd0 net/built-in.o
                0x0000000040045654                arp_raw_request
 .text.ArpRequest
                0x0000000040045724       0x8c net/built-in.o
                0x0000000040045724                ArpRequest
 .text.ArpTimeoutCheck
                0x00000000400457b0       0x84 net/built-in.o
                0x00000000400457b0                ArpTimeoutCheck
 .text.DhcpOptionsProcess
                0x0000000040045834      0x23c net/built-in.o
 .text.DhcpExtended
                0x0000000040045a70      0x1a4 net/built-in.o
 .text.BootpRequest
                0x0000000040045c14      0x228 net/built-in.o
                0x0000000040045c14                BootpRequest
 .text.DhcpRequest
                0x0000000040045e3c        0x4 net/built-in.o
                0x0000000040045e3c                DhcpRequest
 .text.DhcpHandler
                0x0000000040045e40      0x388 net/built-in.o
 .text.BootpTimeout
                0x00000000400461c8       0x48 net/built-in.o
 .text.__def_eth_init
                0x0000000040046210        0x8 net/built-in.o
 .text.eth_get_dev_by_index
                0x0000000040046218       0x40 net/built-in.o
                0x0000000040046218                eth_get_dev_by_index
 .text.eth_get_dev_index
                0x0000000040046258       0x1c net/built-in.o
                0x0000000040046258                eth_get_dev_index
 .text.eth_halt
                0x0000000040046274       0x34 net/built-in.o
                0x0000000040046274                eth_halt
 .text.eth_send
                0x00000000400462a8       0x38 net/built-in.o
                0x00000000400462a8                eth_send
 .text.eth_rx   0x00000000400462e0       0x2c net/built-in.o
                0x00000000400462e0                eth_rx
 .text.eth_get_name
                0x000000004004630c       0x20 net/built-in.o
                0x000000004004630c                eth_get_name
 .text.eth_current_changed
                0x000000004004632c       0x5c net/built-in.o
 .text.eth_set_current
                0x0000000040046388       0xac net/built-in.o
                0x0000000040046388                eth_set_current
 .text.eth_try_another
                0x0000000040046434       0x88 net/built-in.o
                0x0000000040046434                eth_try_another
 .text.eth_unregister
                0x00000000400464bc       0xa0 net/built-in.o
                0x00000000400464bc                eth_unregister
 .text.eth_register
                0x000000004004655c       0x80 net/built-in.o
                0x000000004004655c                eth_register
 .text.eth_setenv_enetaddr
                0x00000000400465dc       0x38 net/built-in.o
                0x00000000400465dc                eth_setenv_enetaddr
 .text.eth_get_dev_by_name
                0x0000000040046614       0x80 net/built-in.o
                0x0000000040046614                eth_get_dev_by_name
 .text.eth_parse_enetaddr
                0x0000000040046694       0x5c net/built-in.o
                0x0000000040046694                eth_parse_enetaddr
 .text.eth_getenv_enetaddr
                0x00000000400466f0       0x58 net/built-in.o
                0x00000000400466f0                eth_getenv_enetaddr
 .text.eth_getenv_enetaddr_by_index
                0x0000000040046748       0x50 net/built-in.o
                0x0000000040046748                eth_getenv_enetaddr_by_index
 .text.eth_init
                0x0000000040046798       0xc4 net/built-in.o
                0x0000000040046798                eth_init
 .text.eth_write_hwaddr
                0x000000004004685c      0x1e4 net/built-in.o
                0x000000004004685c                eth_write_hwaddr
 .text.eth_initialize
                0x0000000040046a40      0x1d0 net/built-in.o
                0x0000000040046a40                eth_initialize
 .text.on_bootfile
                0x0000000040046c10       0x78 net/built-in.o
 .text.startAgainTimeout
                0x0000000040046c88       0x14 net/built-in.o
 .text.dummy_handler
                0x0000000040046c9c        0x4 net/built-in.o
 .text.net_set_udp_handler
                0x0000000040046ca0       0x20 net/built-in.o
                0x0000000040046ca0                net_set_udp_handler
 .text.net_get_arp_handler
                0x0000000040046cc0       0x10 net/built-in.o
                0x0000000040046cc0                net_get_arp_handler
 .text.NetCksumOk
                0x0000000040046cd0       0x58 net/built-in.o
                0x0000000040046cd0                NetCksumOk
 .text.NetCksum
                0x0000000040046d28       0x48 net/built-in.o
                0x0000000040046d28                NetCksum
 .text.copy_filename
                0x0000000040046d70       0x58 net/built-in.o
                0x0000000040046d70                copy_filename
 .text.string_to_VLAN
                0x0000000040046dc8       0x54 net/built-in.o
                0x0000000040046dc8                string_to_VLAN
 .text.getenv_VLAN
                0x0000000040046e1c       0x10 net/built-in.o
                0x0000000040046e1c                getenv_VLAN
 .text.NetEthHdrSize
                0x0000000040046e2c       0x44 net/built-in.o
                0x0000000040046e2c                NetEthHdrSize
 .text.ip_to_string
                0x0000000040046e70       0x50 net/built-in.o
                0x0000000040046e70                ip_to_string
 .text.NetSetTimeout
                0x0000000040046ec0       0x50 net/built-in.o
                0x0000000040046ec0                NetSetTimeout
 .text.net_set_ip_header
                0x0000000040046f10       0x88 net/built-in.o
                0x0000000040046f10                net_set_ip_header
 .text.net_set_udp_header
                0x0000000040046f98       0xd0 net/built-in.o
                0x0000000040046f98                net_set_udp_header
 .text.net_update_ether
                0x0000000040047068       0x90 net/built-in.o
                0x0000000040047068                net_update_ether
 .text.NetSetEther
                0x00000000400470f8       0xa4 net/built-in.o
                0x00000000400470f8                NetSetEther
 .text.NetReceive
                0x000000004004719c      0x2d8 net/built-in.o
                0x000000004004719c                NetReceive
 .text.NetSendUDPPacket
                0x0000000040047474      0x104 net/built-in.o
                0x0000000040047474                NetSendUDPPacket
 .text.NetStartAgain
                0x0000000040047578      0x130 net/built-in.o
                0x0000000040047578                NetStartAgain
 .text.NetInitLoop
                0x00000000400476a8       0xf0 net/built-in.o
 .text.net_init
                0x0000000040047798       0x94 net/built-in.o
                0x0000000040047798                net_init
 .text.NetLoop  0x000000004004782c      0x3b4 net/built-in.o
                0x000000004004782c                NetLoop
 .text.net_auto_load
                0x0000000040047be0       0x64 net/built-in.o
                0x0000000040047be0                net_auto_load
 .text.basename
                0x0000000040047c44       0x3c net/built-in.o
 .text.rpc_add_credentials
                0x0000000040047c80       0xf0 net/built-in.o
 .text.rpc_lookup_reply
                0x0000000040047d70       0xec net/built-in.o
 .text.nfs_mount_reply
                0x0000000040047e5c       0xc4 net/built-in.o
 .text.nfs_umountall_reply
                0x0000000040047f20       0xa8 net/built-in.o
 .text.nfs_lookup_reply
                0x0000000040047fc8       0xb4 net/built-in.o
 .text.rpc_req  0x000000004004807c      0x13c net/built-in.o
 .text.rpc_lookup_req
                0x00000000400481b8       0x80 net/built-in.o
 .text.nfs_mount_req
                0x0000000040048238       0xa4 net/built-in.o
 .text.nfs_umountall_req
                0x00000000400482dc       0x60 net/built-in.o
 .text.nfs_lookup_req
                0x000000004004833c       0xb8 net/built-in.o
 .text.nfs_read_req
                0x00000000400483f4       0xa0 net/built-in.o
 .text.nfs_readlink_req
                0x0000000040048494       0x58 net/built-in.o
 .text.NfsSend  0x00000000400484ec       0xa0 net/built-in.o
 .text.NfsStart
                0x000000004004858c      0x270 net/built-in.o
                0x000000004004858c                NfsStart
 .text.nfs_readlink_reply
                0x00000000400487fc      0x128 net/built-in.o
 .text.nfs_read_reply
                0x0000000040048924      0x17c net/built-in.o
 .text.NfsHandler
                0x0000000040048aa0      0x23c net/built-in.o
 .text.NfsTimeout
                0x0000000040048cdc       0x64 net/built-in.o
 .text.ping_receive
                0x0000000040048d40       0xec net/built-in.o
                0x0000000040048d40                ping_receive
 .text.ping_start
                0x0000000040048e2c      0x130 net/built-in.o
                0x0000000040048e2c                ping_start
 .text.ping_timeout
                0x0000000040048f5c       0x1c net/built-in.o
 .text.TftpSend
                0x0000000040048f78      0x1c8 net/built-in.o
 .text.TftpStart
                0x0000000040049140      0x34c net/built-in.o
                0x0000000040049140                TftpStart
 .text.TftpTimeout
                0x000000004004948c       0x88 net/built-in.o
 .text.TftpHandler
                0x0000000040049514      0x3c0 net/built-in.o
 .text.raise    0x00000000400498d4       0x1c /work/apron/iMX/linux/ltib/sources/u-boot-imx/arch/arm/lib/eabi_compat.o
                0x00000000400498d4                raise
 .text          0x00000000400498f0       0xc4 /work/apron/buildroot/output/host/usr/lib/gcc/arm-buildroot-linux-gnueabi/4.4.7/libgcc.a(_udivsi3.o)
                0x00000000400498f0                __udivsi3
                0x00000000400498f0                __aeabi_uidiv
                0x000000004004999c                __aeabi_uidivmod
 .text          0x00000000400499b4       0xf4 /work/apron/buildroot/output/host/usr/lib/gcc/arm-buildroot-linux-gnueabi/4.4.7/libgcc.a(_divsi3.o)
                0x00000000400499b4                __aeabi_idiv
                0x00000000400499b4                __divsi3
                0x0000000040049a90                __aeabi_idivmod
 .text          0x0000000040049aa8       0x1c /work/apron/buildroot/output/host/usr/lib/gcc/arm-buildroot-linux-gnueabi/4.4.7/libgcc.a(_lshrdi3.o)
                0x0000000040049aa8                __aeabi_llsr
                0x0000000040049aa8                __lshrdi3
 .text          0x0000000040049ac4       0x1c /work/apron/buildroot/output/host/usr/lib/gcc/arm-buildroot-linux-gnueabi/4.4.7/libgcc.a(_ashrdi3.o)
                0x0000000040049ac4                __ashrdi3
                0x0000000040049ac4                __aeabi_lasr
 .text          0x0000000040049ae0       0x1c /work/apron/buildroot/output/host/usr/lib/gcc/arm-buildroot-linux-gnueabi/4.4.7/libgcc.a(_ashldi3.o)
                0x0000000040049ae0                __ashldi3
                0x0000000040049ae0                __aeabi_llsl
 .text          0x0000000040049afc       0x10 /work/apron/buildroot/output/host/usr/lib/gcc/arm-buildroot-linux-gnueabi/4.4.7/libgcc.a(_dvmd_lnx.o)
                0x0000000040049afc                __div0

.glue_7         0x0000000040049b0c        0x0
 .glue_7        0x0000000000000000        0x0 linker stubs

.glue_7t        0x0000000040049b0c        0x0
 .glue_7t       0x0000000000000000        0x0 linker stubs

.vfp11_veneer   0x0000000040049b0c        0x0
 .vfp11_veneer  0x0000000000000000        0x0 linker stubs

.v4_bx          0x0000000040049b0c        0x0
 .v4_bx         0x0000000000000000        0x0 linker stubs

.iplt           0x0000000040049b0c        0x0
 .iplt          0x0000000000000000        0x0 arch/arm/cpu/arm926ejs/start.o
                0x0000000040049b0c                . = ALIGN (0x4)

.rodata         0x0000000040049b10    0x1061f
 *(SORT(.rodata*))
 .rodata.location.4882
                0x0000000040049b10       0x60 common/built-in.o
 .rodata.C.35.3783
                0x0000000040049b70       0x30 drivers/built-in.o
 .rodata.C.37.3751
                0x0000000040049ba0       0x80 arch/arm/lib/built-in.o
 .rodata.CSWTCH.124
                0x0000000040049c20        0x8 common/built-in.o
 .rodata.CSWTCH.51
                0x0000000040049c28       0x14 arch/arm/cpu/arm926ejs/mxs/built-in.o
 .rodata.CSWTCH.62
                0x0000000040049c3c       0x20 common/built-in.o
 .rodata.CSWTCH.85
                0x0000000040049c5c       0x58 common/built-in.o
 .rodata.CSWTCH.92
                0x0000000040049cb4       0x14 common/built-in.o
 .rodata.__FUNCTION__.4530
                0x0000000040049cc8       0x14 net/built-in.o
 .rodata.__FUNCTION__.4747
                0x0000000040049cdc       0x14 drivers/mtd/built-in.o
 .rodata.__FUNCTION__.4826
                0x0000000040049cf0       0x14 drivers/mtd/nand/built-in.o
 .rodata.__FUNCTION__.5002
                0x0000000040049d04        0xc drivers/mtd/nand/built-in.o
 .rodata.__FUNCTION__.5161
                0x0000000040049d10        0xc drivers/mtd/ubi/built-in.o
 .rodata.__FUNCTION__.5323
                0x0000000040049d1c       0x18 common/built-in.o
 .rodata.__FUNCTION__.5337
                0x0000000040049d34       0x10 drivers/mtd/ubi/built-in.o
 .rodata.__FUNCTION__.5598
                0x0000000040049d44       0x14 drivers/mtd/nand/built-in.o
 .rodata.__FUNCTION__.5731
                0x0000000040049d58       0x14 drivers/mtd/nand/built-in.o
 .rodata.__FUNCTION__.6392
                0x0000000040049d6c       0x10 drivers/mtd/nand/built-in.o
 .rodata.__FUNCTION__.7193
                0x0000000040049d7c        0xc fs/built-in.o
 .rodata.__FUNCTION__.7336
                0x0000000040049d88       0x10 drivers/mtd/nand/built-in.o
 .rodata.__func__.10103
                0x0000000040049d98       0x10 drivers/net/built-in.o
 .rodata.__func__.4019
                0x0000000040049da8       0x10 common/built-in.o
 .rodata.__func__.4049
                0x0000000040049db8        0xc common/built-in.o
 .rodata.__func__.4366
                0x0000000040049dc4       0x10 common/built-in.o
 .rodata.__func__.4441
                0x0000000040049dd4       0x10 common/built-in.o
 .rodata.__func__.4883
                0x0000000040049de4        0x8 common/built-in.o
 .rodata.__func__.4983
                0x0000000040049dec       0x1c common/built-in.o
 .rodata.__func__.5111
                0x0000000040049e08       0x18 drivers/mtd/ubi/built-in.o
 .rodata.__func__.5164
                0x0000000040049e20        0xc drivers/mtd/ubi/built-in.o
 .rodata.__func__.5187
                0x0000000040049e2c       0x14 drivers/mtd/ubi/built-in.o
 .rodata.__func__.5194
                0x0000000040049e40       0x14 drivers/mtd/ubi/built-in.o
 .rodata.__func__.5199
                0x0000000040049e54        0x8 drivers/mtd/ubi/built-in.o
 .rodata.__func__.5205
                0x0000000040049e5c       0x10 drivers/mtd/ubi/built-in.o
 .rodata.__func__.5209
                0x0000000040049e6c       0x10 drivers/mtd/ubi/built-in.o
 .rodata.__func__.5211
                0x0000000040049e7c        0xc drivers/mtd/ubi/built-in.o
 .rodata.__func__.5224
                0x0000000040049e88        0xc drivers/mtd/ubi/built-in.o
 .rodata.__func__.5268
                0x0000000040049e94       0x10 drivers/mtd/ubi/built-in.o
 .rodata.__func__.5280
                0x0000000040049ea4        0x8 drivers/mtd/ubi/built-in.o
 .rodata.__func__.5286
                0x0000000040049eac        0xc common/built-in.o
 .rodata.__func__.5323
                0x0000000040049eb8       0x10 drivers/mtd/ubi/built-in.o
 .rodata.__func__.5325
                0x0000000040049ec8        0xc drivers/mtd/ubi/built-in.o
 .rodata.__func__.5331
                0x0000000040049ed4       0x10 drivers/mtd/ubi/built-in.o
 .rodata.__func__.5355
                0x0000000040049ee4       0x14 drivers/mtd/ubi/built-in.o
 .rodata.__func__.5357
                0x0000000040049ef8       0x10 drivers/mtd/ubi/built-in.o
 .rodata.__func__.5363
                0x0000000040049f08       0x14 drivers/mtd/ubi/built-in.o
 .rodata.__func__.5366
                0x0000000040049f1c        0xc drivers/mtd/ubi/built-in.o
 .rodata.__func__.5388
                0x0000000040049f28       0x10 drivers/mtd/ubi/built-in.o
 .rodata.__func__.5397
                0x0000000040049f38        0xc drivers/mtd/ubi/built-in.o
 .rodata.__func__.5402
                0x0000000040049f44       0x14 drivers/mtd/ubi/built-in.o
 .rodata.__func__.5409
                0x0000000040049f58       0x10 drivers/mtd/ubi/built-in.o
 .rodata.__func__.5431
                0x0000000040049f68       0x10 drivers/mtd/ubi/built-in.o
 .rodata.__func__.5444
                0x0000000040049f78        0xc drivers/mtd/ubi/built-in.o
 .rodata.__func__.5485
                0x0000000040049f84       0x14 drivers/mtd/ubi/built-in.o
 .rodata.__func__.5496
                0x0000000040049f98       0x14 drivers/mtd/ubi/built-in.o
 .rodata.__func__.5506
                0x0000000040049fac       0x18 drivers/mtd/ubi/built-in.o
 .rodata.__func__.5508
                0x0000000040049fc4       0x14 drivers/mtd/ubi/built-in.o
 .rodata.__func__.5518
                0x0000000040049fd8       0x24 drivers/mtd/ubi/built-in.o
 .rodata.__func__.5530
                0x0000000040049ffc        0xc drivers/mtd/ubi/built-in.o
 .rodata.__func__.5612
                0x000000004004a008       0x28 drivers/mtd/ubi/built-in.o
 .rodata.__func__.5621
                0x000000004004a030       0x10 drivers/mtd/ubi/built-in.o
 .rodata.__func__.5662
                0x000000004004a040       0x14 drivers/mtd/ubi/built-in.o
 .rodata.__func__.5682
                0x000000004004a054       0x10 drivers/mtd/ubi/built-in.o
 .rodata.__func__.5719
                0x000000004004a064       0x14 drivers/mtd/ubi/built-in.o
 .rodata.__func__.5743
                0x000000004004a078       0x14 drivers/mtd/ubi/built-in.o
 .rodata.__func__.5764
                0x000000004004a08c        0xc drivers/mtd/ubi/built-in.o
 .rodata.__func__.5792
                0x000000004004a098       0x14 drivers/mtd/ubi/built-in.o
 .rodata.__func__.5809
                0x000000004004a0ac       0x18 drivers/mtd/ubi/built-in.o
 .rodata.__func__.5833
                0x000000004004a0c4       0x18 drivers/mtd/ubi/built-in.o
 .rodata.__func__.5843
                0x000000004004a0dc        0xc drivers/mtd/ubi/built-in.o
 .rodata.__func__.5846
                0x000000004004a0e8       0x14 drivers/mtd/ubi/built-in.o
 .rodata.__func__.5846
                0x000000004004a0fc       0x10 drivers/usb/host/built-in.o
 .rodata.__func__.5885
                0x000000004004a10c       0x14 drivers/mtd/ubi/built-in.o
 .rodata.__func__.5907
                0x000000004004a120       0x14 drivers/mtd/ubi/built-in.o
 .rodata.__func__.5991
                0x000000004004a134       0x10 common/built-in.o
 .rodata.__func__.6034
                0x000000004004a144       0x1c common/built-in.o
 .rodata.__func__.6093
                0x000000004004a160       0x14 drivers/mtd/ubi/built-in.o
 .rodata.__func__.6377
                0x000000004004a174       0x20 fs/built-in.o
 .rodata.__func__.6814
                0x000000004004a194        0xc fs/built-in.o
 .rodata.__func__.6822
                0x000000004004a1a0       0x10 fs/built-in.o
 .rodata.__func__.6829
                0x000000004004a1b0       0x14 fs/built-in.o
 .rodata.__func__.6842
                0x000000004004a1c4       0x14 fs/built-in.o
 .rodata.__func__.6848
                0x000000004004a1d8       0x10 fs/built-in.o
 .rodata.__func__.6855
                0x000000004004a1e8       0x10 fs/built-in.o
 .rodata.__func__.6887
                0x000000004004a1f8       0x10 fs/built-in.o
 .rodata.__func__.6894
                0x000000004004a208        0x8 fs/built-in.o
 .rodata.__func__.6895
                0x000000004004a210       0x14 fs/built-in.o
 .rodata.__func__.6912
                0x000000004004a224        0xc fs/built-in.o
 .rodata.__func__.6924
                0x000000004004a230       0x18 fs/built-in.o
 .rodata.__func__.6928
                0x000000004004a248       0x1c fs/built-in.o
 .rodata.__func__.6930
                0x000000004004a264       0x14 fs/built-in.o
 .rodata.__func__.6965
                0x000000004004a278       0x1c fs/built-in.o
 .rodata.__func__.6969
                0x000000004004a294       0x14 fs/built-in.o
 .rodata.__func__.6973
                0x000000004004a2a8       0x1c fs/built-in.o
 .rodata.__func__.6994
                0x000000004004a2c4        0xc fs/built-in.o
 .rodata.__func__.7003
                0x000000004004a2d0       0x18 fs/built-in.o
 .rodata.__func__.7018
                0x000000004004a2e8        0xc fs/built-in.o
 .rodata.__func__.7020
                0x000000004004a2f4       0x14 fs/built-in.o
 .rodata.__func__.7027
                0x000000004004a308        0x8 fs/built-in.o
 .rodata.__func__.7048
                0x000000004004a310       0x10 fs/built-in.o
 .rodata.__func__.7069
                0x000000004004a320        0xc fs/built-in.o
 .rodata.__func__.7100
                0x000000004004a32c       0x10 fs/built-in.o
 .rodata.__func__.7113
                0x000000004004a33c       0x14 fs/built-in.o
 .rodata.__func__.7121
                0x000000004004a350       0x18 fs/built-in.o
 .rodata.__func__.7126
                0x000000004004a368       0x10 fs/built-in.o
 .rodata.__func__.7144
                0x000000004004a378       0x10 fs/built-in.o
 .rodata.__func__.7163
                0x000000004004a388       0x10 fs/built-in.o
 .rodata.__func__.7166
                0x000000004004a398        0xc fs/built-in.o
 .rodata.__func__.7181
                0x000000004004a3a4        0xc fs/built-in.o
 .rodata.__func__.7218
                0x000000004004a3b0       0x14 fs/built-in.o
 .rodata.__func__.7263
                0x000000004004a3c4        0xc fs/built-in.o
 .rodata.__func__.7281
                0x000000004004a3d0       0x10 fs/built-in.o
 .rodata.__func__.7308
                0x000000004004a3e0        0xc fs/built-in.o
 .rodata.__func__.7328
                0x000000004004a3ec       0x10 fs/built-in.o
 .rodata.__func__.7353
                0x000000004004a3fc        0xc fs/built-in.o
 .rodata.__func__.7374
                0x000000004004a408       0x10 fs/built-in.o
 .rodata.__func__.7377
                0x000000004004a418       0x18 fs/built-in.o
 .rodata.__func__.7414
                0x000000004004a430       0x10 fs/built-in.o
 .rodata.__func__.7416
                0x000000004004a440       0x14 fs/built-in.o
 .rodata.__func__.7423
                0x000000004004a454        0xc fs/built-in.o
 .rodata.__func__.7470
                0x000000004004a460        0xc fs/built-in.o
 .rodata.__func__.7538
                0x000000004004a46c       0x18 fs/built-in.o
 .rodata.__func__.7542
                0x000000004004a484       0x14 fs/built-in.o
 .rodata.__func__.7546
                0x000000004004a498       0x10 common/built-in.o
 .rodata.__func__.7615
                0x000000004004a4a8       0x10 fs/built-in.o
 .rodata.__func__.7675
                0x000000004004a4b8        0xc fs/built-in.o
 .rodata._ctype
                0x000000004004a4c4      0x100 lib/built-in.o
                0x000000004004a4c4                _ctype
 .rodata.asix_dongles
                0x000000004004a5c4       0x60 drivers/usb/eth/built-in.o
 .rodata.block_drvr
                0x000000004004a624       0x10 disk/built-in.o
 .rodata.boot_os
                0x000000004004a634       0x60 common/built-in.o
 .rodata.crc16_tab
                0x000000004004a694      0x200 lib/built-in.o
 .rodata.crc16_table
                0x000000004004a894      0x200 fs/built-in.o
                0x000000004004a894                crc16_table
 .rodata.crc32table_le
                0x000000004004aa94      0x400 drivers/mtd/ubi/built-in.o
 .rodata.crc_table
                0x000000004004ae94      0x400 lib/built-in.o
 .rodata.day_name.4703
                0x000000004004b294       0x18 fs/built-in.o
 .rodata.dbase.4395
                0x000000004004b2ac       0x40 lib/built-in.o
 .rodata.default_environment
                0x000000004004b2ec      0x4c8 common/built-in.o
                0x000000004004b2ec                default_environment
 .rodata.delims.3894
                0x000000004004b7b4        0x4 common/built-in.o
 .rodata.desc_and_len_tbl
                0x000000004004b7b8       0x30 common/built-in.o
 .rodata.dext.4396
                0x000000004004b7e8       0x40 lib/built-in.o
 .rodata.digits.4103
                0x000000004004b828       0x10 lib/built-in.o
 .rodata.distfix
                0x000000004004b838       0x80 lib/built-in.o
 .rodata.env_flags_varaccess_mask
                0x000000004004b8b8       0x10 common/built-in.o
 .rodata.env_flags_varaccess_rep
                0x000000004004b8c8        0x8 common/built-in.o
 .rodata.env_flags_vartype_rep
                0x000000004004b8d0        0x8 common/built-in.o
 .rodata.erase_seq
                0x000000004004b8d8        0x4 common/built-in.o
 .rodata.fdt_errtable
                0x000000004004b8dc       0x34 lib/libfdt/built-in.o
 .rodata.hex_asc
                0x000000004004b910       0x14 lib/built-in.o
 .rodata.lbase.4393
                0x000000004004b924       0x40 lib/built-in.o
 .rodata.lenfix
                0x000000004004b964      0x800 lib/built-in.o
 .rodata.lext.4394
                0x000000004004c164       0x40 lib/built-in.o
 .rodata.lzop_magic
                0x000000004004c1a4        0xc lib/built-in.o
 .rodata.mon_lengths.4726
                0x000000004004c1b0       0x60 fs/built-in.o
 .rodata.mon_name.4704
                0x000000004004c210       0x24 fs/built-in.o
 .rodata.mtdids_default
                0x000000004004c234        0x4 common/built-in.o
 .rodata.mtdparts_default
                0x000000004004c238        0x4 common/built-in.o
 .rodata.mxs_boot_modes
                0x000000004004c23c       0x88 arch/arm/cpu/arm926ejs/mxs/built-in.o
 .rodata.mxs_port
                0x000000004004c2c4       0x18 drivers/usb/host/built-in.o
 .rodata.names.3883
                0x000000004004c2dc        0x8 lib/built-in.o
 .rodata.nand_ecc_precalc_table
                0x000000004004c2e4      0x100 drivers/mtd/nand/built-in.o
 .rodata.nand_flash_ids
                0x000000004004c3e4      0x6d8 drivers/mtd/nand/built-in.o
                0x000000004004c3e4                nand_flash_ids
 .rodata.nand_manuf_ids
                0x000000004004cabc       0x60 drivers/mtd/nand/built-in.o
                0x000000004004cabc                nand_manuf_ids
 .rodata.op_table
                0x000000004004cb1c       0x68 common/built-in.o
 .rodata.order.4700
                0x000000004004cb84       0x28 lib/built-in.o
 .rodata.patterns
                0x000000004004cbac        0x4 drivers/mtd/ubi/built-in.o
 .rodata.prob_dev
                0x000000004004cbb0       0x24 drivers/usb/eth/built-in.o
 .rodata.reg_0_5_desc_tbl
                0x000000004004cbd4       0x30 common/built-in.o
 .rodata.reg_0_desc_tbl
                0x000000004004cc04       0x78 common/built-in.o
 .rodata.reg_1_desc_tbl
                0x000000004004cc7c       0xc0 common/built-in.o
 .rodata.reg_2_desc_tbl
                0x000000004004cd3c        0xc common/built-in.o
 .rodata.reg_3_desc_tbl
                0x000000004004cd48       0x24 common/built-in.o
 .rodata.reg_4_desc_tbl
                0x000000004004cd6c       0x90 common/built-in.o
 .rodata.reg_5_desc_tbl
                0x000000004004cdfc       0x90 common/built-in.o
 .rodata.smsc95xx_dongles
                0x000000004004ce8c       0x14 drivers/usb/eth/built-in.o
 .rodata.tab_seq
                0x000000004004cea0        0xc common/built-in.o
 .rodata.uimage_arch
                0x000000004004ceac      0x114 common/built-in.o
 .rodata.uimage_comp
                0x000000004004cfc0       0x48 common/built-in.o
 .rodata.uimage_os
                0x000000004004d008       0x6c common/built-in.o
 .rodata.uimage_type
                0x000000004004d074       0xd8 common/built-in.o
 .rodata.us_direction
                0x000000004004d14c       0x20 common/built-in.o
 .rodata.version_string
                0x000000004004d16c       0x40 common/built-in.o
                0x000000004004d16c                version_string
 .rodata.weekdays
                0x000000004004d1ac       0x1c common/built-in.o
 .rodata.year_lengths.4727
                0x000000004004d1c8        0x8 fs/built-in.o
 .rodata        0x000000004004d1d0        0x3 common/built-in.o
 .rodata        0x000000004004d1d3       0x3f drivers/usb/host/built-in.o
 .rodata        0x000000004004d212        0xe net/built-in.o
 .rodata.str1.1
                0x000000004004d220      0x24c arch/arm/cpu/arm926ejs/mxs/built-in.o
                                        0x257 (size before relaxing)
 .rodata.str1.1
                0x000000004004d46c      0x401 arch/arm/lib/built-in.o
                                        0x41f (size before relaxing)
 .rodata.str1.1
                0x000000004004d86d       0x4d board/freescale/mx28evk/built-in.o
 .rodata.str1.1
                0x000000004004d8ba     0x7495 common/built-in.o
                                       0x7a53 (size before relaxing)
 .rodata.str1.1
                0x0000000040054d4f      0x3fc disk/built-in.o
                                        0x437 (size before relaxing)
 .rodata.str1.1
                0x000000004005514b       0x43 drivers/built-in.o
 .rodata.str1.1
                0x000000004005518e       0x27 drivers/dma/built-in.o
 .rodata.str1.1
                0x00000000400551b5      0x1b4 drivers/mtd/built-in.o
                                        0x1d6 (size before relaxing)
 .rodata.str1.1
                0x0000000040055369      0x9f4 drivers/mtd/nand/built-in.o
                                        0xa50 (size before relaxing)
 .rodata.str1.1
                0x0000000040055d5d     0x178f drivers/mtd/ubi/built-in.o
                                       0x1b60 (size before relaxing)
 .rodata.str1.1
                0x00000000400574ec      0x18e drivers/net/built-in.o
                                        0x196 (size before relaxing)
 .rodata.str1.1
                0x000000004005767a       0x57 drivers/serial/built-in.o
                                         0x92 (size before relaxing)
 .rodata.str1.1
                0x00000000400576d1       0xfc drivers/usb/eth/built-in.o
                                        0x169 (size before relaxing)
 .rodata.str1.1
                0x00000000400577cd      0x267 drivers/usb/host/built-in.o
 .rodata.str1.1
                0x0000000040057a34     0x1a46 fs/built-in.o
                                       0x1cb1 (size before relaxing)
 .rodata.str1.1
                0x000000004005947a      0x44e lib/built-in.o
                                        0x470 (size before relaxing)
 .rodata.str1.1
                0x00000000400598c8       0xfc lib/libfdt/built-in.o
                                        0x11c (size before relaxing)
 .rodata.str1.1
                0x00000000400599c4      0x750 net/built-in.o
                                        0x8f4 (size before relaxing)
 .rodata.str1.1
                0x000000004005a114       0x1b /work/apron/iMX/linux/ltib/sources/u-boot-imx/arch/arm/lib/eabi_compat.o

.hash           0x000000004005a130       0x2c
 .hash          0x000000004005a130       0x2c arch/arm/cpu/arm926ejs/start.o
                0x000000004005a15c                . = ALIGN (0x4)

.data           0x000000004005a15c     0x4d28
 *(.data*)
 .data.init_sequence
                0x000000004005a15c       0x30 arch/arm/lib/built-in.o
                0x000000004005a15c                init_sequence
 .data.bootm_help_text
                0x000000004005a18c      0x38c common/built-in.o
 .data.bootz_help_text
                0x000000004005a518      0x208 common/built-in.o
 .data.cmd_bootm_sub
                0x000000004005a720       0xfc common/built-in.o
 .data.tabs.5640
                0x000000004005a81c       0x24 common/built-in.o
 .data.root.4881
                0x000000004005a840        0x4 common/built-in.o
 .data.fdt_help_text
                0x000000004005a844      0x5e4 common/built-in.o
 .data.do_echo  0x000000004005ae28        0x4 common/built-in.o
 .data.dp_last_length
                0x000000004005ae2c        0x4 common/built-in.o
 .data.mtdparts_help_text
                0x000000004005ae30      0x4d4 common/built-in.o
 .data.nand_help_text
                0x000000004005b304      0x4c0 common/built-in.o
 .data.env_help_text
                0x000000004005b7c4      0x218 common/built-in.o
 .data.env_id   0x000000004005b9dc        0x4 common/built-in.o
 .data.cmd_env_sub
                0x000000004005b9e0       0xfc common/built-in.o
 .data.source_help_text
                0x000000004005badc       0x50 common/built-in.o
 .data.usb_ether_curr_dev
                0x000000004005bb2c        0x4 common/built-in.o
 .data.usb_stor_curr_dev
                0x000000004005bb30        0x4 common/built-in.o
 .data.imgextract_help_text
                0x000000004005bb34       0x58 common/built-in.o
 .data.av_      0x000000004005bb8c      0x408 common/built-in.o
 .data.sbrk_base
                0x000000004005bf94        0x4 common/built-in.o
 .data.trim_threshold
                0x000000004005bf98        0x4 common/built-in.o
 .data.first_call
                0x000000004005bf9c        0x8 common/built-in.o
 .data.env_htab
                0x000000004005bfa4       0x10 common/built-in.o
                0x000000004005bfa4                env_htab
 .data.env_name_spec
                0x000000004005bfb4        0x4 common/built-in.o
                0x000000004005bfb4                env_name_spec
 .data.reserved_list
                0x000000004005bfb8       0x84 common/built-in.o
 .data.load_addr
                0x000000004005c03c        0x4 common/built-in.o
                0x000000004005c03c                load_addr
 .data.hist_cur
                0x000000004005c040        0x4 common/built-in.o
 .data.stdio_names
                0x000000004005c044        0xc common/built-in.o
                0x000000004005c044                stdio_names
 .data.month_days
                0x000000004005c050       0x30 drivers/built-in.o
 .data.nand_curr_device
                0x000000004005c080        0x4 drivers/mtd/nand/built-in.o
                0x000000004005c080                nand_curr_device
 .data.nand_oob_8
                0x000000004005c084      0xb08 drivers/mtd/nand/built-in.o
 .data.nand_oob_16
                0x000000004005cb8c      0xb08 drivers/mtd/nand/built-in.o
 .data.nand_oob_128
                0x000000004005d694      0xb08 drivers/mtd/nand/built-in.o
 .data.nand_oob_64
                0x000000004005e19c      0xb08 drivers/mtd/nand/built-in.o
 .data.bbt_mirror_descr
                0x000000004005eca4       0x24 drivers/mtd/nand/built-in.o
 .data.mirror_pattern
                0x000000004005ecc8        0x4 drivers/mtd/nand/built-in.o
 .data.bbt_main_no_oob_descr
                0x000000004005eccc       0x24 drivers/mtd/nand/built-in.o
 .data.scan_agand_pattern
                0x000000004005ecf0        0x8 drivers/mtd/nand/built-in.o
 .data.bbt_mirror_no_oob_descr
                0x000000004005ecf8       0x24 drivers/mtd/nand/built-in.o
 .data.bbt_pattern
                0x000000004005ed1c        0x4 drivers/mtd/nand/built-in.o
 .data.scan_ff_pattern
                0x000000004005ed20        0x4 drivers/mtd/nand/built-in.o
 .data.bbt_main_descr
                0x000000004005ed24       0x24 drivers/mtd/nand/built-in.o
 .data.agand_flashbased
                0x000000004005ed48       0x24 drivers/mtd/nand/built-in.o
 .data.pl01x_serial_drv
                0x000000004005ed6c       0x30 drivers/serial/built-in.o
 .data.baudrate
                0x000000004005ed9c        0x4 drivers/serial/built-in.o
                0x000000004005ed9c                baudrate
 .data.descriptor
                0x000000004005eda0       0x38 drivers/usb/host/built-in.o
 .data.fstypes  0x000000004005edd8       0x30 fs/built-in.o
 .data.ubifs_fs_type
                0x000000004005ee08       0x20 fs/built-in.o
 .data.lzo_compr
                0x000000004005ee28       0x10 fs/built-in.o
 .data.none_compr
                0x000000004005ee38       0x10 fs/built-in.o
 .data.zlib_compr
                0x000000004005ee48       0x10 fs/built-in.o
 .data.first_call.4051
                0x000000004005ee58        0x4 net/built-in.o
 .data.NetOurNativeVLAN
                0x000000004005ee5c        0x2 net/built-in.o
                0x000000004005ee5c                NetOurNativeVLAN
 *fill*         0x000000004005ee5e        0x2 
 .data.NetBcastAddr
                0x000000004005ee60        0x8 net/built-in.o
                0x000000004005ee60                NetBcastAddr
 .data.NetOurVLAN
                0x000000004005ee68        0x2 net/built-in.o
                0x000000004005ee68                NetOurVLAN
 *fill*         0x000000004005ee6a        0x2 
 .data.nfs_offset
                0x000000004005ee6c        0x4 net/built-in.o
 .data.TftpTimeoutCountMax
                0x000000004005ee70        0x4 net/built-in.o
 .data.TftpBlkSizeOption
                0x000000004005ee74        0x2 net/built-in.o
 *fill*         0x000000004005ee76        0x2 
 .data.TftpTimeoutMSecs
                0x000000004005ee78        0x4 net/built-in.o
 .data.TftpBlkSize
                0x000000004005ee7c        0x2 net/built-in.o
 *fill*         0x000000004005ee7e        0x2 
 .data.TftpRRQTimeoutCountMax
                0x000000004005ee80        0x4 net/built-in.o
                0x000000004005ee80                TftpRRQTimeoutCountMax

.got            0x000000004005ee84        0x0
 .got           0x0000000000000000        0x0 arch/arm/cpu/arm926ejs/start.o

.got.plt        0x000000004005ee84        0xc
 .got.plt       0x000000004005ee84        0xc arch/arm/cpu/arm926ejs/start.o
                0x000000004005ee84                _GLOBAL_OFFSET_TABLE_

.igot.plt       0x000000004005ee90        0x0
 .igot.plt      0x0000000000000000        0x0 arch/arm/cpu/arm926ejs/start.o
                0x000000004005ee90                . = ALIGN (0x4)
                0x000000004005ee90                . = .
                0x000000004005ee90                . = ALIGN (0x4)

.u_boot_list    0x000000004005ee90      0x7a0
 *(SORT(.u_boot_list*))
 .u_boot_list_2_cmd_1
                0x000000004005ee90        0x0 common/built-in.o
 .u_boot_list_2_cmd_2_base
                0x000000004005ee90       0x1c common/built-in.o
                0x000000004005ee90                _u_boot_list_2_cmd_2_base
 .u_boot_list_2_cmd_2_bdinfo
                0x000000004005eeac       0x1c common/built-in.o
                0x000000004005eeac                _u_boot_list_2_cmd_2_bdinfo
 .u_boot_list_2_cmd_2_boot
                0x000000004005eec8       0x1c common/built-in.o
                0x000000004005eec8                _u_boot_list_2_cmd_2_boot
 .u_boot_list_2_cmd_2_bootd
                0x000000004005eee4       0x1c common/built-in.o
                0x000000004005eee4                _u_boot_list_2_cmd_2_bootd
 .u_boot_list_2_cmd_2_bootm
                0x000000004005ef00       0x1c common/built-in.o
                0x000000004005ef00                _u_boot_list_2_cmd_2_bootm
 .u_boot_list_2_cmd_2_bootp
                0x000000004005ef1c       0x1c common/built-in.o
                0x000000004005ef1c                _u_boot_list_2_cmd_2_bootp
 .u_boot_list_2_cmd_2_bootz
                0x000000004005ef38       0x1c common/built-in.o
                0x000000004005ef38                _u_boot_list_2_cmd_2_bootz
 .u_boot_list_2_cmd_2_chpart
                0x000000004005ef54       0x1c common/built-in.o
                0x000000004005ef54                _u_boot_list_2_cmd_2_chpart
 .u_boot_list_2_cmd_2_clocks
                0x000000004005ef70       0x1c arch/arm/cpu/arm926ejs/mxs/built-in.o
                0x000000004005ef70                _u_boot_list_2_cmd_2_clocks
 .u_boot_list_2_cmd_2_cmp
                0x000000004005ef8c       0x1c common/built-in.o
                0x000000004005ef8c                _u_boot_list_2_cmd_2_cmp
 .u_boot_list_2_cmd_2_coninfo
                0x000000004005efa8       0x1c common/built-in.o
                0x000000004005efa8                _u_boot_list_2_cmd_2_coninfo
 .u_boot_list_2_cmd_2_cp
                0x000000004005efc4       0x1c common/built-in.o
                0x000000004005efc4                _u_boot_list_2_cmd_2_cp
 .u_boot_list_2_cmd_2_crc32
                0x000000004005efe0       0x1c common/built-in.o
                0x000000004005efe0                _u_boot_list_2_cmd_2_crc32
 .u_boot_list_2_cmd_2_date
                0x000000004005effc       0x1c common/built-in.o
                0x000000004005effc                _u_boot_list_2_cmd_2_date
 .u_boot_list_2_cmd_2_dcache
                0x000000004005f018       0x1c common/built-in.o
                0x000000004005f018                _u_boot_list_2_cmd_2_dcache
 .u_boot_list_2_cmd_2_dhcp
                0x000000004005f034       0x1c common/built-in.o
                0x000000004005f034                _u_boot_list_2_cmd_2_dhcp
 .u_boot_list_2_cmd_2_echo
                0x000000004005f050       0x1c common/built-in.o
                0x000000004005f050                _u_boot_list_2_cmd_2_echo
 .u_boot_list_2_cmd_2_editenv
                0x000000004005f06c       0x1c common/built-in.o
                0x000000004005f06c                _u_boot_list_2_cmd_2_editenv
 .u_boot_list_2_cmd_2_env
                0x000000004005f088       0x1c common/built-in.o
                0x000000004005f088                _u_boot_list_2_cmd_2_env
 .u_boot_list_2_cmd_2_exit
                0x000000004005f0a4       0x1c common/built-in.o
                0x000000004005f0a4                _u_boot_list_2_cmd_2_exit
 .u_boot_list_2_cmd_2_false
                0x000000004005f0c0       0x1c common/built-in.o
                0x000000004005f0c0                _u_boot_list_2_cmd_2_false
 .u_boot_list_2_cmd_2_fatinfo
                0x000000004005f0dc       0x1c common/built-in.o
                0x000000004005f0dc                _u_boot_list_2_cmd_2_fatinfo
 .u_boot_list_2_cmd_2_fatload
                0x000000004005f0f8       0x1c common/built-in.o
                0x000000004005f0f8                _u_boot_list_2_cmd_2_fatload
 .u_boot_list_2_cmd_2_fatls
                0x000000004005f114       0x1c common/built-in.o
                0x000000004005f114                _u_boot_list_2_cmd_2_fatls
 .u_boot_list_2_cmd_2_fdt
                0x000000004005f130       0x1c common/built-in.o
                0x000000004005f130                _u_boot_list_2_cmd_2_fdt
 .u_boot_list_2_cmd_2_go
                0x000000004005f14c       0x1c common/built-in.o
                0x000000004005f14c                _u_boot_list_2_cmd_2_go
 .u_boot_list_2_cmd_2_gpio
                0x000000004005f168       0x1c common/built-in.o
                0x000000004005f168                _u_boot_list_2_cmd_2_gpio
 .u_boot_list_2_cmd_2_help
                0x000000004005f184       0x1c common/built-in.o
                0x000000004005f184                _u_boot_list_2_cmd_2_help
 .u_boot_list_2_cmd_2_icache
                0x000000004005f1a0       0x1c common/built-in.o
                0x000000004005f1a0                _u_boot_list_2_cmd_2_icache
 .u_boot_list_2_cmd_2_iminfo
                0x000000004005f1bc       0x1c common/built-in.o
                0x000000004005f1bc                _u_boot_list_2_cmd_2_iminfo
 .u_boot_list_2_cmd_2_imxtract
                0x000000004005f1d8       0x1c common/built-in.o
                0x000000004005f1d8                _u_boot_list_2_cmd_2_imxtract
 .u_boot_list_2_cmd_2_itest
                0x000000004005f1f4       0x1c common/built-in.o
                0x000000004005f1f4                _u_boot_list_2_cmd_2_itest
 .u_boot_list_2_cmd_2_loadb
                0x000000004005f210       0x1c common/built-in.o
                0x000000004005f210                _u_boot_list_2_cmd_2_loadb
 .u_boot_list_2_cmd_2_loads
                0x000000004005f22c       0x1c common/built-in.o
                0x000000004005f22c                _u_boot_list_2_cmd_2_loads
 .u_boot_list_2_cmd_2_loadx
                0x000000004005f248       0x1c common/built-in.o
                0x000000004005f248                _u_boot_list_2_cmd_2_loadx
 .u_boot_list_2_cmd_2_loady
                0x000000004005f264       0x1c common/built-in.o
                0x000000004005f264                _u_boot_list_2_cmd_2_loady
 .u_boot_list_2_cmd_2_loop
                0x000000004005f280       0x1c common/built-in.o
                0x000000004005f280                _u_boot_list_2_cmd_2_loop
 .u_boot_list_2_cmd_2_md
                0x000000004005f29c       0x1c common/built-in.o
                0x000000004005f29c                _u_boot_list_2_cmd_2_md
 .u_boot_list_2_cmd_2_mii
                0x000000004005f2b8       0x1c common/built-in.o
                0x000000004005f2b8                _u_boot_list_2_cmd_2_mii
 .u_boot_list_2_cmd_2_mm
                0x000000004005f2d4       0x1c common/built-in.o
                0x000000004005f2d4                _u_boot_list_2_cmd_2_mm
 .u_boot_list_2_cmd_2_mtdparts
                0x000000004005f2f0       0x1c common/built-in.o
                0x000000004005f2f0                _u_boot_list_2_cmd_2_mtdparts
 .u_boot_list_2_cmd_2_mw
                0x000000004005f30c       0x1c common/built-in.o
                0x000000004005f30c                _u_boot_list_2_cmd_2_mw
 .u_boot_list_2_cmd_2_nand
                0x000000004005f328       0x1c common/built-in.o
                0x000000004005f328                _u_boot_list_2_cmd_2_nand
 .u_boot_list_2_cmd_2_nboot
                0x000000004005f344       0x1c common/built-in.o
                0x000000004005f344                _u_boot_list_2_cmd_2_nboot
 .u_boot_list_2_cmd_2_nfs
                0x000000004005f360       0x1c common/built-in.o
                0x000000004005f360                _u_boot_list_2_cmd_2_nfs
 .u_boot_list_2_cmd_2_nm
                0x000000004005f37c       0x1c common/built-in.o
                0x000000004005f37c                _u_boot_list_2_cmd_2_nm
 .u_boot_list_2_cmd_2_ping
                0x000000004005f398       0x1c common/built-in.o
                0x000000004005f398                _u_boot_list_2_cmd_2_ping
 .u_boot_list_2_cmd_2_printenv
                0x000000004005f3b4       0x1c common/built-in.o
                0x000000004005f3b4                _u_boot_list_2_cmd_2_printenv
 .u_boot_list_2_cmd_2_question_mark
                0x000000004005f3d0       0x1c common/built-in.o
                0x000000004005f3d0                _u_boot_list_2_cmd_2_question_mark
 .u_boot_list_2_cmd_2_reset
                0x000000004005f3ec       0x1c common/built-in.o
                0x000000004005f3ec                _u_boot_list_2_cmd_2_reset
 .u_boot_list_2_cmd_2_run
                0x000000004005f408       0x1c common/built-in.o
                0x000000004005f408                _u_boot_list_2_cmd_2_run
 .u_boot_list_2_cmd_2_saveenv
                0x000000004005f424       0x1c common/built-in.o
                0x000000004005f424                _u_boot_list_2_cmd_2_saveenv
 .u_boot_list_2_cmd_2_setenv
                0x000000004005f440       0x1c common/built-in.o
                0x000000004005f440                _u_boot_list_2_cmd_2_setenv
 .u_boot_list_2_cmd_2_setexpr
                0x000000004005f45c       0x1c common/built-in.o
                0x000000004005f45c                _u_boot_list_2_cmd_2_setexpr
 .u_boot_list_2_cmd_2_showvar
                0x000000004005f478       0x1c common/built-in.o
                0x000000004005f478                _u_boot_list_2_cmd_2_showvar
 .u_boot_list_2_cmd_2_sleep
                0x000000004005f494       0x1c common/built-in.o
                0x000000004005f494                _u_boot_list_2_cmd_2_sleep
 .u_boot_list_2_cmd_2_source
                0x000000004005f4b0       0x1c common/built-in.o
                0x000000004005f4b0                _u_boot_list_2_cmd_2_source
 .u_boot_list_2_cmd_2_test
                0x000000004005f4cc       0x1c common/built-in.o
                0x000000004005f4cc                _u_boot_list_2_cmd_2_test
 .u_boot_list_2_cmd_2_tftpboot
                0x000000004005f4e8       0x1c common/built-in.o
                0x000000004005f4e8                _u_boot_list_2_cmd_2_tftpboot
 .u_boot_list_2_cmd_2_true
                0x000000004005f504       0x1c common/built-in.o
                0x000000004005f504                _u_boot_list_2_cmd_2_true
 .u_boot_list_2_cmd_2_ubi
                0x000000004005f520       0x1c common/built-in.o
                0x000000004005f520                _u_boot_list_2_cmd_2_ubi
 .u_boot_list_2_cmd_2_ubifsload
                0x000000004005f53c       0x1c common/built-in.o
                0x000000004005f53c                _u_boot_list_2_cmd_2_ubifsload
 .u_boot_list_2_cmd_2_ubifsls
                0x000000004005f558       0x1c common/built-in.o
                0x000000004005f558                _u_boot_list_2_cmd_2_ubifsls
 .u_boot_list_2_cmd_2_ubifsmount
                0x000000004005f574       0x1c common/built-in.o
                0x000000004005f574                _u_boot_list_2_cmd_2_ubifsmount
 .u_boot_list_2_cmd_2_ubifsumount
                0x000000004005f590       0x1c common/built-in.o
                0x000000004005f590                _u_boot_list_2_cmd_2_ubifsumount
 .u_boot_list_2_cmd_2_usb
                0x000000004005f5ac       0x1c common/built-in.o
                0x000000004005f5ac                _u_boot_list_2_cmd_2_usb
 .u_boot_list_2_cmd_2_usbboot
                0x000000004005f5c8       0x1c common/built-in.o
                0x000000004005f5c8                _u_boot_list_2_cmd_2_usbboot
 .u_boot_list_2_cmd_2_version
                0x000000004005f5e4       0x1c common/built-in.o
                0x000000004005f5e4                _u_boot_list_2_cmd_2_version
 .u_boot_list_2_cmd_3
                0x000000004005f600        0x0 common/built-in.o
 .u_boot_list_2_env_clbk_1
                0x000000004005f600        0x0 common/built-in.o
 .u_boot_list_2_env_clbk_2_baudrate
                0x000000004005f600        0x8 drivers/serial/built-in.o
                0x000000004005f600                _u_boot_list_2_env_clbk_2_baudrate
 .u_boot_list_2_env_clbk_2_bootfile
                0x000000004005f608        0x8 net/built-in.o
                0x000000004005f608                _u_boot_list_2_env_clbk_2_bootfile
 .u_boot_list_2_env_clbk_2_callbacks
                0x000000004005f610        0x8 common/built-in.o
                0x000000004005f610                _u_boot_list_2_env_clbk_2_callbacks
 .u_boot_list_2_env_clbk_2_console
                0x000000004005f618        0x8 common/built-in.o
                0x000000004005f618                _u_boot_list_2_env_clbk_2_console
 .u_boot_list_2_env_clbk_2_flags
                0x000000004005f620        0x8 common/built-in.o
                0x000000004005f620                _u_boot_list_2_env_clbk_2_flags
 .u_boot_list_2_env_clbk_2_loadaddr
                0x000000004005f628        0x8 common/built-in.o
                0x000000004005f628                _u_boot_list_2_env_clbk_2_loadaddr
 .u_boot_list_2_env_clbk_3
                0x000000004005f630        0x0 common/built-in.o
                0x000000004005f630                . = ALIGN (0x4)

.image_copy_end
                0x000000004005f630        0x0
 *(.__image_copy_end)
 .__image_copy_end
                0x000000004005f630        0x0 arch/arm/lib/built-in.o

.rel_dyn_start  0x000000004005f630        0x0
 *(.__rel_dyn_start)
 .__rel_dyn_start
                0x000000004005f630        0x0 arch/arm/lib/built-in.o

.rel.dyn        0x000000004005f630     0x8128
 *(.rel*)
 .rel.got       0x0000000000000000        0x0 arch/arm/cpu/arm926ejs/start.o
 .rel.plt       0x0000000000000000        0x0 arch/arm/cpu/arm926ejs/start.o
 .rel.iplt      0x0000000000000000        0x0 arch/arm/cpu/arm926ejs/start.o
 .rel.text      0x000000004005f630       0x70 arch/arm/cpu/arm926ejs/start.o
 .rel.text.mxs_set_ssp_busclock
                0x0000000000000000        0x0 arch/arm/cpu/arm926ejs/start.o
 .rel.text.mxc_get_clock
                0x000000004005f6a0       0x60 arch/arm/cpu/arm926ejs/start.o
 .rel.text.mxs_dram_init
                0x000000004005f700        0x8 arch/arm/cpu/arm926ejs/start.o
 .rel.text.imx_get_mac_from_fuse
                0x000000004005f708        0x8 arch/arm/cpu/arm926ejs/start.o
 .rel.text.do_mx28_showclocks
                0x000000004005f710       0x20 arch/arm/cpu/arm926ejs/start.o
 .rel.text.print_cpuinfo
                0x000000004005f730       0x40 arch/arm/cpu/arm926ejs/start.o
 .rel.text.arch_cpu_init
                0x000000004005f770        0x8 arch/arm/cpu/arm926ejs/start.o
 .rel.rodata.CSWTCH.51
                0x000000004005f778       0x28 arch/arm/cpu/arm926ejs/start.o
 .rel.rodata.mxs_boot_modes
                0x000000004005f7a0       0x88 arch/arm/cpu/arm926ejs/start.o
 .rel.u_boot_list_2_cmd_2_clocks
                0x000000004005f828       0x20 arch/arm/cpu/arm926ejs/start.o
 .rel.text.display_banner
                0x000000004005f848       0x10 arch/arm/cpu/arm926ejs/start.o
 .rel.text.init_baudrate
                0x000000004005f858        0x8 arch/arm/cpu/arm926ejs/start.o
 .rel.text.board_init_r
                0x000000004005f860       0x30 arch/arm/cpu/arm926ejs/start.o
 .rel.text.board_init_f
                0x000000004005f890       0x30 arch/arm/cpu/arm926ejs/start.o
 .rel.text.boot_prep_vxworks
                0x000000004005f8c0       0x10 arch/arm/cpu/arm926ejs/start.o
 .rel.text.bootz_setup
                0x000000004005f8d0       0x10 arch/arm/cpu/arm926ejs/start.o
 .rel.text.boot_prep_linux
                0x000000004005f8e0       0x18 arch/arm/cpu/arm926ejs/start.o
 .rel.text.boot_jump_linux
                0x000000004005f8f8       0x28 arch/arm/cpu/arm926ejs/start.o
 .rel.text.__enable_caches
                0x0000000000000000        0x0 arch/arm/cpu/arm926ejs/start.o
 .rel.text.interrupt_init
                0x000000004005f920        0x8 arch/arm/cpu/arm926ejs/start.o
 .rel.text.show_regs
                0x000000004005f928       0x50 arch/arm/cpu/arm926ejs/start.o
 .rel.text.bad_mode
                0x000000004005f978        0x8 arch/arm/cpu/arm926ejs/start.o
 .rel.text.do_irq
                0x000000004005f980        0x8 arch/arm/cpu/arm926ejs/start.o
 .rel.text.do_fiq
                0x000000004005f988        0x8 arch/arm/cpu/arm926ejs/start.o
 .rel.text.do_not_used
                0x000000004005f990        0x8 arch/arm/cpu/arm926ejs/start.o
 .rel.text.do_data_abort
                0x000000004005f998        0x8 arch/arm/cpu/arm926ejs/start.o
 .rel.text.do_prefetch_abort
                0x000000004005f9a0        0x8 arch/arm/cpu/arm926ejs/start.o
 .rel.text.do_software_interrupt
                0x000000004005f9a8        0x8 arch/arm/cpu/arm926ejs/start.o
 .rel.text.do_undefined_instruction
                0x000000004005f9b0        0x8 arch/arm/cpu/arm926ejs/start.o
 .rel.text.do_reset
                0x000000004005f9b8        0x8 arch/arm/cpu/arm926ejs/start.o
 .rel.rodata.C.37.3751
                0x000000004005f9c0      0x100 arch/arm/cpu/arm926ejs/start.o
 .rel.data.init_sequence
                0x000000004005fac0       0x58 arch/arm/cpu/arm926ejs/start.o
 .rel.text.board_eth_init
                0x000000004005fb18       0x18 arch/arm/cpu/arm926ejs/start.o
 .rel.text.do_bdinfo
                0x000000004005fb30       0xa0 arch/arm/cpu/arm926ejs/start.o
 .rel.text.do_go
                0x000000004005fbd0       0x10 arch/arm/cpu/arm926ejs/start.o
 .rel.text.image_info
                0x000000004005fbe0       0x40 arch/arm/cpu/arm926ejs/start.o
 .rel.text.do_iminfo
                0x000000004005fc20        0x8 arch/arm/cpu/arm926ejs/start.o
 .rel.text.bootm_find_ramdisk
                0x000000004005fc28       0x18 arch/arm/cpu/arm926ejs/start.o
 .rel.text.bootm_find_fdt
                0x000000004005fc40       0x10 arch/arm/cpu/arm926ejs/start.o
 .rel.text.do_bootm_plan9
                0x000000004005fc50       0x18 arch/arm/cpu/arm926ejs/start.o
 .rel.text.do_bootm_rtems
                0x000000004005fc68        0x8 arch/arm/cpu/arm926ejs/start.o
 .rel.text.do_bootm_standalone
                0x000000004005fc70       0x18 arch/arm/cpu/arm926ejs/start.o
 .rel.text.do_bootm_netbsd
                0x000000004005fc88       0x18 arch/arm/cpu/arm926ejs/start.o
 .rel.text.do_bootvx_fdt
                0x000000004005fca0       0x38 arch/arm/cpu/arm926ejs/start.o
 .rel.text.do_bootd
                0x000000004005fcd8        0x8 arch/arm/cpu/arm926ejs/start.o
 .rel.text.T.170
                0x000000004005fce0       0xe8 arch/arm/cpu/arm926ejs/start.o
 .rel.text.do_bootm
                0x000000004005fdc8       0x18 arch/arm/cpu/arm926ejs/start.o
 .rel.text.bootm_maybe_autostart
                0x000000004005fde0       0x20 arch/arm/cpu/arm926ejs/start.o
 .rel.text.do_bootz
                0x000000004005fe00       0x10 arch/arm/cpu/arm926ejs/start.o
 .rel.text.parse_argv
                0x000000004005fe10       0x18 arch/arm/cpu/arm926ejs/start.o
 .rel.text.flush_dcache_all
                0x0000000000000000        0x0 arch/arm/cpu/arm926ejs/start.o
 .rel.text.do_dcache
                0x000000004005fe28       0x18 arch/arm/cpu/arm926ejs/start.o
 .rel.text.invalidate_icache_all
                0x000000004005fe40        0x8 arch/arm/cpu/arm926ejs/start.o
 .rel.text.do_icache
                0x000000004005fe48       0x18 arch/arm/cpu/arm926ejs/start.o
 .rel.text.do_coninfo
                0x000000004005fe60       0x28 arch/arm/cpu/arm926ejs/start.o
 .rel.text.do_date
                0x000000004005fe88       0x40 arch/arm/cpu/arm926ejs/start.o
 .rel.text.common_diskboot
                0x000000004005fec8       0x28 arch/arm/cpu/arm926ejs/start.o
 .rel.text.do_echo
                0x000000004005fef0        0x8 arch/arm/cpu/arm926ejs/start.o
 .rel.text.do_fat_fsinfo
                0x000000004005fef8       0x10 arch/arm/cpu/arm926ejs/start.o
 .rel.text.is_printable_string
                0x000000004005ff08        0x8 arch/arm/cpu/arm926ejs/start.o
 .rel.text.fdt_valid
                0x000000004005ff10       0x28 arch/arm/cpu/arm926ejs/start.o
 .rel.text.print_data
                0x000000004005ff38       0x58 arch/arm/cpu/arm926ejs/start.o
 .rel.text.set_working_fdt_addr
                0x000000004005ff90       0x10 arch/arm/cpu/arm926ejs/start.o
 .rel.text.do_fdt
                0x000000004005ffa0      0x238 arch/arm/cpu/arm926ejs/start.o
 .rel.text.do_gpio
                0x00000000400601d8       0x18 arch/arm/cpu/arm926ejs/start.o
 .rel.text.do_help
                0x00000000400601f0       0x10 arch/arm/cpu/arm926ejs/start.o
 .rel.text.binary_test
                0x0000000040060200       0x78 arch/arm/cpu/arm926ejs/start.o
 .rel.text.do_itest
                0x0000000040060278       0x40 arch/arm/cpu/arm926ejs/start.o
 .rel.text.bin_data_init
                0x00000000400602b8       0x18 arch/arm/cpu/arm926ejs/start.o
 .rel.text.bin_data_char
                0x00000000400602d0       0x10 arch/arm/cpu/arm926ejs/start.o
 .rel.text.load_serial_ymodem
                0x00000000400602e0       0x20 arch/arm/cpu/arm926ejs/start.o
 .rel.text.load_serial
                0x0000000040060300       0x68 arch/arm/cpu/arm926ejs/start.o
 .rel.text.do_load_serial
                0x0000000040060368       0x30 arch/arm/cpu/arm926ejs/start.o
 .rel.text.T.106
                0x0000000040060398       0x18 arch/arm/cpu/arm926ejs/start.o
 .rel.text.do_load_serial_bin
                0x00000000400603b0      0x118 arch/arm/cpu/arm926ejs/start.o
 .rel.text.do_mem_mw
                0x00000000400604c8        0x8 arch/arm/cpu/arm926ejs/start.o
 .rel.text.do_mem_base
                0x00000000400604d0       0x10 arch/arm/cpu/arm926ejs/start.o
 .rel.text.do_mem_cmp
                0x00000000400604e0       0x30 arch/arm/cpu/arm926ejs/start.o
 .rel.text.do_mem_crc
                0x0000000040060510        0x8 arch/arm/cpu/arm926ejs/start.o
 .rel.text.do_mem_cp
                0x0000000040060518       0x10 arch/arm/cpu/arm926ejs/start.o
 .rel.text.mod_mem
                0x0000000040060528       0x48 arch/arm/cpu/arm926ejs/start.o
 .rel.text.do_mem_md
                0x0000000040060570       0x20 arch/arm/cpu/arm926ejs/start.o
 .rel.text.do_mii
                0x0000000040060590      0x130 arch/arm/cpu/arm926ejs/start.o
 .rel.text.device_find
                0x0000000000000000        0x0 arch/arm/cpu/arm926ejs/start.o
 .rel.text.mtd_part_info
                0x00000000400606c0       0x20 arch/arm/cpu/arm926ejs/start.o
 .rel.text.memsize_format
                0x00000000400606e0       0x20 arch/arm/cpu/arm926ejs/start.o
 .rel.text.index_partitions
                0x0000000040060700       0x28 arch/arm/cpu/arm926ejs/start.o
 .rel.text.current_save
                0x0000000040060728       0x40 arch/arm/cpu/arm926ejs/start.o
 .rel.text.part_sort_add
                0x0000000040060768       0x18 arch/arm/cpu/arm926ejs/start.o
 .rel.text.device_del
                0x0000000040060780       0x18 arch/arm/cpu/arm926ejs/start.o
 .rel.text.get_mtd_info
                0x0000000040060798       0x28 arch/arm/cpu/arm926ejs/start.o
 .rel.text.part_validate
                0x00000000400607c0       0x48 arch/arm/cpu/arm926ejs/start.o
 .rel.text.device_parse
                0x0000000040060808       0x88 arch/arm/cpu/arm926ejs/start.o
 .rel.text.mtd_id_parse
                0x0000000040060890       0x30 arch/arm/cpu/arm926ejs/start.o
 .rel.text.find_dev_and_part
                0x00000000400608c0       0x40 arch/arm/cpu/arm926ejs/start.o
 .rel.text.T.218
                0x0000000040060900        0x8 arch/arm/cpu/arm926ejs/start.o
 .rel.text.mtd_devices_init
                0x0000000040060908       0x10 arch/arm/cpu/arm926ejs/start.o
 .rel.text.mtdparts_init
                0x0000000040060918       0xd8 arch/arm/cpu/arm926ejs/start.o
 .rel.text.do_chpart
                0x00000000400609f0       0x38 arch/arm/cpu/arm926ejs/start.o
 .rel.text.T.217
                0x0000000040060a28       0x20 arch/arm/cpu/arm926ejs/start.o
 .rel.text.do_mtdparts
                0x0000000040060a48      0x118 arch/arm/cpu/arm926ejs/start.o
 .rel.text.set_dev
                0x0000000040060b60       0x28 arch/arm/cpu/arm926ejs/start.o
 .rel.text.nand_load_image
                0x0000000040060b88       0x40 arch/arm/cpu/arm926ejs/start.o
 .rel.text.do_nandboot
                0x0000000040060bc8       0x48 arch/arm/cpu/arm926ejs/start.o
 .rel.text.nand_print_and_set_info
                0x0000000040060c10       0x50 arch/arm/cpu/arm926ejs/start.o
 .rel.text.arg_off
                0x0000000040060c60       0x18 arch/arm/cpu/arm926ejs/start.o
 .rel.text.arg_off_size
                0x0000000040060c78       0x30 arch/arm/cpu/arm926ejs/start.o
 .rel.text.do_nand
                0x0000000040060ca8      0x1a8 arch/arm/cpu/arm926ejs/start.o
 .rel.text.do_ping
                0x0000000040060e50       0x18 arch/arm/cpu/arm926ejs/start.o
 .rel.text.netboot_common
                0x0000000040060e68       0x98 arch/arm/cpu/arm926ejs/start.o
 .rel.text.get_env_id
                0x0000000040060f00        0x8 arch/arm/cpu/arm926ejs/start.o
 .rel.text.do_env_delete
                0x0000000040060f08       0x10 arch/arm/cpu/arm926ejs/start.o
 .rel.text._do_env_set
                0x0000000040060f18       0x30 arch/arm/cpu/arm926ejs/start.o
 .rel.text.setenv
                0x0000000040060f48        0x8 arch/arm/cpu/arm926ejs/start.o
 .rel.text.env_print
                0x0000000040060f50       0x18 arch/arm/cpu/arm926ejs/start.o
 .rel.text.do_env_print
                0x0000000040060f68       0x10 arch/arm/cpu/arm926ejs/start.o
 .rel.text.setenv_hex
                0x0000000040060f78        0x8 arch/arm/cpu/arm926ejs/start.o
 .rel.text.do_env
                0x0000000040060f80        0x8 arch/arm/cpu/arm926ejs/start.o
 .rel.text.do_env_import
                0x0000000040060f88       0x50 arch/arm/cpu/arm926ejs/start.o
 .rel.text.do_env_export
                0x0000000040060fd8       0x40 arch/arm/cpu/arm926ejs/start.o
 .rel.text.do_env_default
                0x0000000040061018        0x8 arch/arm/cpu/arm926ejs/start.o
 .rel.text.do_env_save
                0x0000000040061020       0x10 arch/arm/cpu/arm926ejs/start.o
 .rel.text.getenv_f
                0x0000000040061030        0x8 arch/arm/cpu/arm926ejs/start.o
 .rel.text.getenv
                0x0000000040061038        0x8 arch/arm/cpu/arm926ejs/start.o
 .rel.text.do_env_edit
                0x0000000040061040       0x10 arch/arm/cpu/arm926ejs/start.o
 .rel.text.do_setexpr
                0x0000000040061050        0x8 arch/arm/cpu/arm926ejs/start.o
 .rel.text.source
                0x0000000040061058       0x38 arch/arm/cpu/arm926ejs/start.o
 .rel.text.do_source
                0x0000000040061090        0x8 arch/arm/cpu/arm926ejs/start.o
 .rel.text.do_test
                0x0000000040061098       0x78 arch/arm/cpu/arm926ejs/start.o
 .rel.text.ubi_find_volume
                0x0000000040061110       0x10 arch/arm/cpu/arm926ejs/start.o
 .rel.text.ubi_volume_read
                0x0000000040061120       0x38 arch/arm/cpu/arm926ejs/start.o
 .rel.text.ubi_volume_continue_write
                0x0000000040061158       0x20 arch/arm/cpu/arm926ejs/start.o
 .rel.text.ubi_volume_begin_write
                0x0000000040061178       0x18 arch/arm/cpu/arm926ejs/start.o
 .rel.text.ubi_part
                0x0000000040061190       0x78 arch/arm/cpu/arm926ejs/start.o
 .rel.text.do_ubi
                0x0000000040061208      0x200 arch/arm/cpu/arm926ejs/start.o
 .rel.text.ubifs_is_mounted
                0x0000000040061408        0x8 arch/arm/cpu/arm926ejs/start.o
 .rel.text.do_ubifs_load
                0x0000000040061410       0x18 arch/arm/cpu/arm926ejs/start.o
 .rel.text.do_ubifs_ls
                0x0000000040061428       0x20 arch/arm/cpu/arm926ejs/start.o
 .rel.text.cmd_ubifs_umount
                0x0000000040061448       0x20 arch/arm/cpu/arm926ejs/start.o
 .rel.text.do_ubifs_umount
                0x0000000040061468       0x10 arch/arm/cpu/arm926ejs/start.o
 .rel.text.do_ubifs_mount
                0x0000000040061478       0x10 arch/arm/cpu/arm926ejs/start.o
 .rel.text.usb_get_class_desc
                0x0000000040061488       0x50 arch/arm/cpu/arm926ejs/start.o
 .rel.text.do_usbboot
                0x00000000400614d8        0x8 arch/arm/cpu/arm926ejs/start.o
 .rel.text.usb_display_class_sub
                0x00000000400614e0       0xc8 arch/arm/cpu/arm926ejs/start.o
 .rel.text.usb_show_tree_graph
                0x00000000400615a8       0x48 arch/arm/cpu/arm926ejs/start.o
 .rel.text.usb_display_desc
                0x00000000400615f0       0x38 arch/arm/cpu/arm926ejs/start.o
 .rel.text.usb_display_string
                0x0000000040061628        0x8 arch/arm/cpu/arm926ejs/start.o
 .rel.text.usb_display_config
                0x0000000040061630       0xa8 arch/arm/cpu/arm926ejs/start.o
 .rel.text.do_usb
                0x00000000400616d8      0x168 arch/arm/cpu/arm926ejs/start.o
 .rel.text.do_version
                0x0000000040061840       0x20 arch/arm/cpu/arm926ejs/start.o
 .rel.text.do_imgextract
                0x0000000040061860       0x90 arch/arm/cpu/arm926ejs/start.o
 .rel.text.cmd_get_data_size
                0x00000000400618f0        0x8 arch/arm/cpu/arm926ejs/start.o
 .rel.text.cmd_usage
                0x00000000400618f8       0x18 arch/arm/cpu/arm926ejs/start.o
 .rel.text.var_complete
                0x0000000040061910       0x10 arch/arm/cpu/arm926ejs/start.o
 .rel.text.find_cmd
                0x0000000040061920       0x10 arch/arm/cpu/arm926ejs/start.o
 .rel.text.cmd_process
                0x0000000040061930       0x18 arch/arm/cpu/arm926ejs/start.o
 .rel.text._do_help
                0x0000000040061948       0x10 arch/arm/cpu/arm926ejs/start.o
 .rel.text.cmd_auto_complete
                0x0000000040061958       0x40 arch/arm/cpu/arm926ejs/start.o
 .rel.text.console_setfile
                0x0000000040061998       0x10 arch/arm/cpu/arm926ejs/start.o
 .rel.text.fgetc
                0x00000000400619a8        0x8 arch/arm/cpu/arm926ejs/start.o
 .rel.text.ftstc
                0x00000000400619b0        0x8 arch/arm/cpu/arm926ejs/start.o
 .rel.text.fputc
                0x00000000400619b8        0x8 arch/arm/cpu/arm926ejs/start.o
 .rel.text.fputs
                0x00000000400619c0        0x8 arch/arm/cpu/arm926ejs/start.o
 .rel.text.disable_ctrlc
                0x0000000000000000        0x0 arch/arm/cpu/arm926ejs/start.o
 .rel.text.had_ctrlc
                0x00000000400619c8        0x8 arch/arm/cpu/arm926ejs/start.o
 .rel.text.clear_ctrlc
                0x00000000400619d0        0x8 arch/arm/cpu/arm926ejs/start.o
 .rel.text.on_console
                0x00000000400619d8       0x20 arch/arm/cpu/arm926ejs/start.o
 .rel.text.stdio_print_current_devices
                0x00000000400619f8       0x40 arch/arm/cpu/arm926ejs/start.o
 .rel.text.console_init_r
                0x0000000040061a38       0x10 arch/arm/cpu/arm926ejs/start.o
 .rel.text.ctrlc
                0x0000000040061a48       0x10 arch/arm/cpu/arm926ejs/start.o
 .rel.text.mallopt
                0x0000000000000000        0x0 arch/arm/cpu/arm926ejs/start.o
 .rel.text.mem_malloc_init
                0x0000000040061a58       0x18 arch/arm/cpu/arm926ejs/start.o
 .rel.text.sbrk
                0x0000000040061a70       0x18 arch/arm/cpu/arm926ejs/start.o
 .rel.text.malloc_trim
                0x0000000040061a88       0x18 arch/arm/cpu/arm926ejs/start.o
 .rel.text.free
                0x0000000040061aa0       0x20 arch/arm/cpu/arm926ejs/start.o
 .rel.text.malloc
                0x0000000040061ac0       0x48 arch/arm/cpu/arm926ejs/start.o
 .rel.text.calloc
                0x0000000040061b08        0x8 arch/arm/cpu/arm926ejs/start.o
 .rel.text.realloc
                0x0000000040061b10        0x8 arch/arm/cpu/arm926ejs/start.o
 .rel.text.env_attr_lookup
                0x0000000040061b18        0x8 arch/arm/cpu/arm926ejs/start.o
 .rel.text.on_callbacks
                0x0000000040061b20       0x20 arch/arm/cpu/arm926ejs/start.o
 .rel.text.find_env_callback
                0x0000000040061b40       0x10 arch/arm/cpu/arm926ejs/start.o
 .rel.text.set_callback
                0x0000000040061b50        0x8 arch/arm/cpu/arm926ejs/start.o
 .rel.text.env_callback_init
                0x0000000040061b58       0x20 arch/arm/cpu/arm926ejs/start.o
 .rel.text.env_get_char_memory
                0x0000000000000000        0x0 arch/arm/cpu/arm926ejs/start.o
 .rel.text.env_get_char
                0x0000000040061b78        0x8 arch/arm/cpu/arm926ejs/start.o
 .rel.text.env_get_addr
                0x0000000000000000        0x0 arch/arm/cpu/arm926ejs/start.o
 .rel.text.env_complete
                0x0000000040061b80       0x18 arch/arm/cpu/arm926ejs/start.o
 .rel.text.set_default_vars
                0x0000000040061b98       0x10 arch/arm/cpu/arm926ejs/start.o
 .rel.text.set_default_env
                0x0000000040061ba8       0x40 arch/arm/cpu/arm926ejs/start.o
 .rel.text.env_relocate
                0x0000000040061be8        0x8 arch/arm/cpu/arm926ejs/start.o
 .rel.text.env_import
                0x0000000040061bf0       0x38 arch/arm/cpu/arm926ejs/start.o
 .rel.text.skip_num
                0x0000000040061c28        0x8 arch/arm/cpu/arm926ejs/start.o
 .rel.text.on_flags
                0x0000000040061c30       0x20 arch/arm/cpu/arm926ejs/start.o
 .rel.text.env_flags_parse_varaccess_from_binflags
                0x0000000000000000        0x0 arch/arm/cpu/arm926ejs/start.o
 .rel.text.env_flags_validate
                0x0000000040061c50       0x68 arch/arm/cpu/arm926ejs/start.o
 .rel.text.env_flags_parse_varaccess
                0x0000000040061cb8       0x10 arch/arm/cpu/arm926ejs/start.o
 .rel.text.env_flags_parse_vartype
                0x0000000040061cc8       0x10 arch/arm/cpu/arm926ejs/start.o
 .rel.text.env_parse_flags_to_bin
                0x0000000040061cd8        0x8 arch/arm/cpu/arm926ejs/start.o
 .rel.text.set_flags
                0x0000000040061ce0        0x8 arch/arm/cpu/arm926ejs/start.o
 .rel.text.env_flags_init
                0x0000000040061ce8       0x28 arch/arm/cpu/arm926ejs/start.o
 .rel.text.env_init
                0x0000000040061d10        0x8 arch/arm/cpu/arm926ejs/start.o
 .rel.text.readenv
                0x0000000040061d18        0x8 arch/arm/cpu/arm926ejs/start.o
 .rel.text.env_relocate_spec
                0x0000000040061d20       0x38 arch/arm/cpu/arm926ejs/start.o
 .rel.text.writeenv
                0x0000000040061d58        0x8 arch/arm/cpu/arm926ejs/start.o
 .rel.text.erase_and_write_env
                0x0000000040061d60       0x28 arch/arm/cpu/arm926ejs/start.o
 .rel.text.saveenv
                0x0000000040061d88       0x40 arch/arm/cpu/arm926ejs/start.o
 .rel.text.jumptable_init
                0x0000000040061dc8       0x98 arch/arm/cpu/arm926ejs/start.o
 .rel.text.of_bus_default_count_cells
                0x0000000000000000        0x0 arch/arm/cpu/arm926ejs/start.o
 .rel.text.fdt_set_phandle
                0x0000000000000000        0x0 arch/arm/cpu/arm926ejs/start.o
 .rel.text.fdt_set_node_status
                0x0000000000000000        0x0 arch/arm/cpu/arm926ejs/start.o
 .rel.text.fdt_create_phandle
                0x0000000000000000        0x0 arch/arm/cpu/arm926ejs/start.o
 .rel.text.fdt_del_node_and_alias
                0x0000000000000000        0x0 arch/arm/cpu/arm926ejs/start.o
 .rel.text.fdt_initrd
                0x0000000040061e60       0x38 arch/arm/cpu/arm926ejs/start.o
 .rel.text.fdt_fixup_memory_banks
                0x0000000040061e98       0x58 arch/arm/cpu/arm926ejs/start.o
 .rel.text.fdt_chosen
                0x0000000040061ef0       0x30 arch/arm/cpu/arm926ejs/start.o
 .rel.text.do_fixup_by_path
                0x0000000040061f20        0x8 arch/arm/cpu/arm926ejs/start.o
 .rel.text.fdt_fixup_ethernet
                0x0000000040061f28       0x30 arch/arm/cpu/arm926ejs/start.o
 .rel.text.fdt_translate_address
                0x0000000000000000        0x0 arch/arm/cpu/arm926ejs/start.o
 .rel.text.fdt_get_base_address
                0x0000000000000000        0x0 arch/arm/cpu/arm926ejs/start.o
 .rel.text.fdt_verify_alias_address
                0x0000000000000000        0x0 arch/arm/cpu/arm926ejs/start.o
 .rel.text.fdt_node_offset_by_compat_reg
                0x0000000000000000        0x0 arch/arm/cpu/arm926ejs/start.o
 .rel.text.hash_command
                0x0000000040061f58        0x8 arch/arm/cpu/arm926ejs/start.o
 .rel.text.hash_block
                0x0000000000000000        0x0 arch/arm/cpu/arm926ejs/start.o
 .rel.text.do_showvar
                0x0000000040061f60       0x20 arch/arm/cpu/arm926ejs/start.o
 .rel.text.u_boot_hush_start
                0x0000000040061f80       0x18 arch/arm/cpu/arm926ejs/start.o
 .rel.text.xmalloc
                0x0000000040061f98        0x8 arch/arm/cpu/arm926ejs/start.o
 .rel.text.file_get
                0x0000000040061fa0       0x30 arch/arm/cpu/arm926ejs/start.o
 .rel.text.unset_local_var
                0x0000000000000000        0x0 arch/arm/cpu/arm926ejs/start.o
 .rel.text.xrealloc
                0x0000000040061fd0        0x8 arch/arm/cpu/arm926ejs/start.o
 .rel.text.done_word
                0x0000000040061fd8       0x18 arch/arm/cpu/arm926ejs/start.o
 .rel.text.b_addqchr
                0x0000000040061ff0        0x8 arch/arm/cpu/arm926ejs/start.o
 .rel.text.get_local_var
                0x0000000040061ff8       0x20 arch/arm/cpu/arm926ejs/start.o
 .rel.text.set_local_var
                0x0000000040062018       0x20 arch/arm/cpu/arm926ejs/start.o
 .rel.text.insert_var_value_sub
                0x0000000040062038        0x8 arch/arm/cpu/arm926ejs/start.o
 .rel.text.parse_stream_outer
                0x0000000040062040       0x68 arch/arm/cpu/arm926ejs/start.o
 .rel.text.parse_file_outer
                0x00000000400620a8       0x10 arch/arm/cpu/arm926ejs/start.o
 .rel.text.parse_string_outer
                0x00000000400620b8       0x18 arch/arm/cpu/arm926ejs/start.o
 .rel.text.run_list_real
                0x00000000400620d0       0x48 arch/arm/cpu/arm926ejs/start.o
 .rel.text.fdt_error
                0x0000000040062118       0x10 arch/arm/cpu/arm926ejs/start.o
 .rel.text.image_setup_libfdt
                0x0000000040062128       0x10 arch/arm/cpu/arm926ejs/start.o
 .rel.text.boot_get_fdt
                0x0000000040062138       0x80 arch/arm/cpu/arm926ejs/start.o
 .rel.text.boot_relocate_fdt
                0x00000000400621b8       0x40 arch/arm/cpu/arm926ejs/start.o
 .rel.text.boot_fdt_add_mem_rsv_regions
                0x00000000400621f8        0x8 arch/arm/cpu/arm926ejs/start.o
 .rel.text.genimg_get_os_name
                0x0000000040062200       0x10 arch/arm/cpu/arm926ejs/start.o
 .rel.text.genimg_get_arch_name
                0x0000000000000000        0x0 arch/arm/cpu/arm926ejs/start.o
 .rel.text.genimg_get_type_name
                0x0000000040062210       0x10 arch/arm/cpu/arm926ejs/start.o
 .rel.text.genimg_get_comp_name
                0x0000000000000000        0x0 arch/arm/cpu/arm926ejs/start.o
 .rel.text.on_loadaddr
                0x0000000040062220        0x8 arch/arm/cpu/arm926ejs/start.o
 .rel.text.getenv_bootm_low
                0x0000000040062228        0x8 arch/arm/cpu/arm926ejs/start.o
 .rel.text.genimg_get_comp_id
                0x0000000000000000        0x0 arch/arm/cpu/arm926ejs/start.o
 .rel.text.genimg_get_type_id
                0x0000000000000000        0x0 arch/arm/cpu/arm926ejs/start.o
 .rel.text.genimg_get_arch_id
                0x0000000000000000        0x0 arch/arm/cpu/arm926ejs/start.o
 .rel.text.genimg_get_os_id
                0x0000000000000000        0x0 arch/arm/cpu/arm926ejs/start.o
 .rel.text.genimg_print_time
                0x0000000040062230        0x8 arch/arm/cpu/arm926ejs/start.o
 .rel.text.genimg_print_size
                0x0000000040062238       0x10 arch/arm/cpu/arm926ejs/start.o
 .rel.text.image_print_contents
                0x0000000040062248       0x98 arch/arm/cpu/arm926ejs/start.o
 .rel.text.boot_ramdisk_high
                0x00000000400622e0       0x20 arch/arm/cpu/arm926ejs/start.o
 .rel.text.getenv_bootm_size
                0x0000000040062300       0x10 arch/arm/cpu/arm926ejs/start.o
 .rel.text.getenv_bootm_mapsize
                0x0000000040062310        0x8 arch/arm/cpu/arm926ejs/start.o
 .rel.text.boot_get_ramdisk
                0x0000000040062318       0x60 arch/arm/cpu/arm926ejs/start.o
 .rel.text.parse_line
                0x0000000000000000        0x0 arch/arm/cpu/arm926ejs/start.o
 .rel.text.do_run
                0x0000000040062378        0x8 arch/arm/cpu/arm926ejs/start.o
 .rel.text.delete_char
                0x0000000040062380       0x10 arch/arm/cpu/arm926ejs/start.o
 .rel.text.cread_add_char
                0x0000000040062390        0x8 arch/arm/cpu/arm926ejs/start.o
 .rel.text.readline_into_buffer
                0x0000000040062398       0xb0 arch/arm/cpu/arm926ejs/start.o
 .rel.text.readline
                0x0000000040062448        0x8 arch/arm/cpu/arm926ejs/start.o
 .rel.text.main_loop
                0x0000000040062450       0x30 arch/arm/cpu/arm926ejs/start.o
 .rel.text.miiphy_init
                0x0000000040062480       0x10 arch/arm/cpu/arm926ejs/start.o
 .rel.text.mdio_get_current_dev
                0x0000000000000000        0x0 arch/arm/cpu/arm926ejs/start.o
 .rel.text.miiphy_get_current_dev
                0x0000000040062490        0x8 arch/arm/cpu/arm926ejs/start.o
 .rel.text.miiphy_listdev
                0x0000000040062498       0x30 arch/arm/cpu/arm926ejs/start.o
 .rel.text.mdio_list_devices
                0x0000000000000000        0x0 arch/arm/cpu/arm926ejs/start.o
 .rel.text.mdio_phydev_for_ethname
                0x0000000000000000        0x0 arch/arm/cpu/arm926ejs/start.o
 .rel.text.miiphy_get_dev_by_name
                0x00000000400624c8       0x10 arch/arm/cpu/arm926ejs/start.o
 .rel.text.miiphy_set_current_dev
                0x00000000400624d8       0x10 arch/arm/cpu/arm926ejs/start.o
 .rel.text.mdio_register
                0x00000000400624e8       0x18 arch/arm/cpu/arm926ejs/start.o
 .rel.text.miiphy_get_active_dev
                0x0000000040062500        0x8 arch/arm/cpu/arm926ejs/start.o
 .rel.text.miiphy_duplex
                0x0000000040062508       0x18 arch/arm/cpu/arm926ejs/start.o
 .rel.text.miiphy_speed
                0x0000000040062520       0x18 arch/arm/cpu/arm926ejs/start.o
 .rel.text.miiphy_reset
                0x0000000000000000        0x0 arch/arm/cpu/arm926ejs/start.o
 .rel.text.miiphy_register
                0x0000000000000000        0x0 arch/arm/cpu/arm926ejs/start.o
 .rel.text.srec_decode
                0x0000000040062538       0x50 arch/arm/cpu/arm926ejs/start.o
 .rel.text.stdio_get_list
                0x0000000040062588        0x8 arch/arm/cpu/arm926ejs/start.o
 .rel.text.stdio_register
                0x0000000040062590        0x8 arch/arm/cpu/arm926ejs/start.o
 .rel.text.stdio_init
                0x0000000040062598       0x30 arch/arm/cpu/arm926ejs/start.o
 .rel.text.stdio_get_by_name
                0x00000000400625c8        0x8 arch/arm/cpu/arm926ejs/start.o
 .rel.text.usb_disable_asynch
                0x00000000400625d0        0x8 arch/arm/cpu/arm926ejs/start.o
 .rel.text.usb_get_dev_index
                0x00000000400625d8        0x8 arch/arm/cpu/arm926ejs/start.o
 .rel.text.usb_alloc_new_device
                0x00000000400625e0       0x18 arch/arm/cpu/arm926ejs/start.o
 .rel.text.usb_free_device
                0x00000000400625f8       0x10 arch/arm/cpu/arm926ejs/start.o
 .rel.text.usb_control_msg
                0x0000000040062608        0x8 arch/arm/cpu/arm926ejs/start.o
 .rel.text.usb_get_configuration_no
                0x0000000040062610       0x20 arch/arm/cpu/arm926ejs/start.o
 .rel.text.usb_string_sub
                0x0000000040062630        0x8 arch/arm/cpu/arm926ejs/start.o
 .rel.text.usb_set_interface
                0x0000000040062638        0x8 arch/arm/cpu/arm926ejs/start.o
 .rel.text.usb_stop
                0x0000000040062640       0x18 arch/arm/cpu/arm926ejs/start.o
 .rel.text.usb_new_device
                0x0000000040062658       0xa0 arch/arm/cpu/arm926ejs/start.o
 .rel.text.usb_init
                0x00000000400626f8       0x50 arch/arm/cpu/arm926ejs/start.o
 .rel.text.usb_hub_reset
                0x0000000040062748        0x8 arch/arm/cpu/arm926ejs/start.o
 .rel.text.usb_hub_port_connect_change
                0x0000000040062750        0x8 arch/arm/cpu/arm926ejs/start.o
 .rel.text.usb_hub_configure
                0x0000000040062758       0x18 arch/arm/cpu/arm926ejs/start.o
 .rel.text.usb_stor_get_dev
                0x0000000040062770       0x10 arch/arm/cpu/arm926ejs/start.o
 .rel.text.usb_storage_probe
                0x0000000040062780       0x38 arch/arm/cpu/arm926ejs/start.o
 .rel.text.usb_stor_BBB_transport
                0x00000000400627b8       0x10 arch/arm/cpu/arm926ejs/start.o
 .rel.text.usb_stor_CB_comdat
                0x00000000400627c8        0x8 arch/arm/cpu/arm926ejs/start.o
 .rel.text.usb_stor_CBI_get_status
                0x00000000400627d0       0x10 arch/arm/cpu/arm926ejs/start.o
 .rel.text.usb_stor_CB_transport
                0x00000000400627e0       0x10 arch/arm/cpu/arm926ejs/start.o
 .rel.text.usb_stor_info
                0x00000000400627f0       0x20 arch/arm/cpu/arm926ejs/start.o
 .rel.text.T.125
                0x0000000040062810        0x8 arch/arm/cpu/arm926ejs/start.o
 .rel.text.usb_stor_read
                0x0000000040062818       0x10 arch/arm/cpu/arm926ejs/start.o
 .rel.text.usb_stor_write
                0x0000000040062828       0x10 arch/arm/cpu/arm926ejs/start.o
 .rel.text.usb_stor_get_info
                0x0000000040062838       0x20 arch/arm/cpu/arm926ejs/start.o
 .rel.text.usb_stor_scan
                0x0000000040062858       0x40 arch/arm/cpu/arm926ejs/start.o
 .rel.text.xyzModem_error
                0x0000000040062898       0x10 arch/arm/cpu/arm926ejs/start.o
 .rel.text.xyzModem_stream_terminate
                0x00000000400628a8        0x8 arch/arm/cpu/arm926ejs/start.o
 .rel.text.xyzModem_stream_close
                0x00000000400628b0       0x20 arch/arm/cpu/arm926ejs/start.o
 .rel.text.xyzModem_get_hdr
                0x00000000400628d0       0x28 arch/arm/cpu/arm926ejs/start.o
 .rel.text.xyzModem_stream_read
                0x00000000400628f8        0x8 arch/arm/cpu/arm926ejs/start.o
 .rel.text.xyzModem_stream_open
                0x0000000040062900       0x10 arch/arm/cpu/arm926ejs/start.o
 .rel.rodata.boot_os
                0x0000000040062910       0x30 arch/arm/cpu/arm926ejs/start.o
 .rel.rodata.weekdays
                0x0000000040062940       0x38 arch/arm/cpu/arm926ejs/start.o
 .rel.rodata.op_table
                0x0000000040062978       0x68 arch/arm/cpu/arm926ejs/start.o
 .rel.rodata.reg_4_desc_tbl
                0x00000000400629e0       0x60 arch/arm/cpu/arm926ejs/start.o
 .rel.rodata.desc_and_len_tbl
                0x0000000040062a40       0x30 arch/arm/cpu/arm926ejs/start.o
 .rel.rodata.reg_5_desc_tbl
                0x0000000040062a70       0x60 arch/arm/cpu/arm926ejs/start.o
 .rel.rodata.reg_2_desc_tbl
                0x0000000040062ad0        0x8 arch/arm/cpu/arm926ejs/start.o
 .rel.rodata.reg_0_5_desc_tbl
                0x0000000040062ad8       0x30 arch/arm/cpu/arm926ejs/start.o
 .rel.rodata.reg_3_desc_tbl
                0x0000000040062b08       0x18 arch/arm/cpu/arm926ejs/start.o
 .rel.rodata.reg_0_desc_tbl
                0x0000000040062b20       0x50 arch/arm/cpu/arm926ejs/start.o
 .rel.rodata.reg_1_desc_tbl
                0x0000000040062b70       0x80 arch/arm/cpu/arm926ejs/start.o
 .rel.rodata.mtdids_default
                0x0000000040062bf0        0x8 arch/arm/cpu/arm926ejs/start.o
 .rel.rodata.mtdparts_default
                0x0000000040062bf8        0x8 arch/arm/cpu/arm926ejs/start.o
 .rel.rodata.CSWTCH.92
                0x0000000040062c00       0x28 arch/arm/cpu/arm926ejs/start.o
 .rel.rodata.location.4882
                0x0000000040062c28       0x10 arch/arm/cpu/arm926ejs/start.o
 .rel.rodata.uimage_comp
                0x0000000040062c38       0x60 arch/arm/cpu/arm926ejs/start.o
 .rel.rodata.uimage_os
                0x0000000040062c98       0x88 arch/arm/cpu/arm926ejs/start.o
 .rel.rodata.uimage_arch
                0x0000000040062d20      0x168 arch/arm/cpu/arm926ejs/start.o
 .rel.rodata.uimage_type
                0x0000000040062e88      0x118 arch/arm/cpu/arm926ejs/start.o
 .rel.rodata.CSWTCH.62
                0x0000000040062fa0       0x40 arch/arm/cpu/arm926ejs/start.o
 .rel.u_boot_list_2_cmd_2_bdinfo
                0x0000000040062fe0       0x20 arch/arm/cpu/arm926ejs/start.o
 .rel.u_boot_list_2_cmd_2_go
                0x0000000040063000       0x20 arch/arm/cpu/arm926ejs/start.o
 .rel.u_boot_list_2_cmd_2_reset
                0x0000000040063020       0x20 arch/arm/cpu/arm926ejs/start.o
 .rel.u_boot_list_2_cmd_2_iminfo
                0x0000000040063040       0x20 arch/arm/cpu/arm926ejs/start.o
 .rel.u_boot_list_2_cmd_2_boot
                0x0000000040063060       0x20 arch/arm/cpu/arm926ejs/start.o
 .rel.u_boot_list_2_cmd_2_bootd
                0x0000000040063080       0x20 arch/arm/cpu/arm926ejs/start.o
 .rel.u_boot_list_2_cmd_2_bootz
                0x00000000400630a0       0x20 arch/arm/cpu/arm926ejs/start.o
 .rel.u_boot_list_2_cmd_2_bootm
                0x00000000400630c0       0x20 arch/arm/cpu/arm926ejs/start.o
 .rel.data.cmd_bootm_sub
                0x00000000400630e0       0xd8 arch/arm/cpu/arm926ejs/start.o
 .rel.u_boot_list_2_cmd_2_icache
                0x00000000400631b8       0x20 arch/arm/cpu/arm926ejs/start.o
 .rel.u_boot_list_2_cmd_2_dcache
                0x00000000400631d8       0x20 arch/arm/cpu/arm926ejs/start.o
 .rel.u_boot_list_2_cmd_2_coninfo
                0x00000000400631f8       0x20 arch/arm/cpu/arm926ejs/start.o
 .rel.u_boot_list_2_cmd_2_date
                0x0000000040063218       0x20 arch/arm/cpu/arm926ejs/start.o
 .rel.u_boot_list_2_cmd_2_echo
                0x0000000040063238       0x20 arch/arm/cpu/arm926ejs/start.o
 .rel.u_boot_list_2_cmd_2_exit
                0x0000000040063258       0x20 arch/arm/cpu/arm926ejs/start.o
 .rel.u_boot_list_2_cmd_2_fatinfo
                0x0000000040063278       0x20 arch/arm/cpu/arm926ejs/start.o
 .rel.u_boot_list_2_cmd_2_fatls
                0x0000000040063298       0x20 arch/arm/cpu/arm926ejs/start.o
 .rel.u_boot_list_2_cmd_2_fatload
                0x00000000400632b8       0x20 arch/arm/cpu/arm926ejs/start.o
 .rel.u_boot_list_2_cmd_2_fdt
                0x00000000400632d8       0x20 arch/arm/cpu/arm926ejs/start.o
 .rel.u_boot_list_2_cmd_2_gpio
                0x00000000400632f8       0x20 arch/arm/cpu/arm926ejs/start.o
 .rel.u_boot_list_2_cmd_2_question_mark
                0x0000000040063318       0x20 arch/arm/cpu/arm926ejs/start.o
 .rel.u_boot_list_2_cmd_2_help
                0x0000000040063338       0x20 arch/arm/cpu/arm926ejs/start.o
 .rel.u_boot_list_2_cmd_2_itest
                0x0000000040063358       0x20 arch/arm/cpu/arm926ejs/start.o
 .rel.u_boot_list_2_cmd_2_loadb
                0x0000000040063378       0x20 arch/arm/cpu/arm926ejs/start.o
 .rel.u_boot_list_2_cmd_2_loadx
                0x0000000040063398       0x20 arch/arm/cpu/arm926ejs/start.o
 .rel.u_boot_list_2_cmd_2_loady
                0x00000000400633b8       0x20 arch/arm/cpu/arm926ejs/start.o
 .rel.u_boot_list_2_cmd_2_loads
                0x00000000400633d8       0x20 arch/arm/cpu/arm926ejs/start.o
 .rel.u_boot_list_2_cmd_2_base
                0x00000000400633f8       0x20 arch/arm/cpu/arm926ejs/start.o
 .rel.u_boot_list_2_cmd_2_mm
                0x0000000040063418       0x20 arch/arm/cpu/arm926ejs/start.o
 .rel.u_boot_list_2_cmd_2_nm
                0x0000000040063438       0x20 arch/arm/cpu/arm926ejs/start.o
 .rel.u_boot_list_2_cmd_2_cmp
                0x0000000040063458       0x20 arch/arm/cpu/arm926ejs/start.o
 .rel.u_boot_list_2_cmd_2_loop
                0x0000000040063478       0x20 arch/arm/cpu/arm926ejs/start.o
 .rel.u_boot_list_2_cmd_2_cp
                0x0000000040063498       0x20 arch/arm/cpu/arm926ejs/start.o
 .rel.u_boot_list_2_cmd_2_crc32
                0x00000000400634b8       0x20 arch/arm/cpu/arm926ejs/start.o
 .rel.u_boot_list_2_cmd_2_md
                0x00000000400634d8       0x20 arch/arm/cpu/arm926ejs/start.o
 .rel.u_boot_list_2_cmd_2_mw
                0x00000000400634f8       0x20 arch/arm/cpu/arm926ejs/start.o
 .rel.u_boot_list_2_cmd_2_mii
                0x0000000040063518       0x20 arch/arm/cpu/arm926ejs/start.o
 .rel.u_boot_list_2_cmd_2_sleep
                0x0000000040063538       0x20 arch/arm/cpu/arm926ejs/start.o
 .rel.u_boot_list_2_cmd_2_mtdparts
                0x0000000040063558       0x20 arch/arm/cpu/arm926ejs/start.o
 .rel.u_boot_list_2_cmd_2_chpart
                0x0000000040063578       0x20 arch/arm/cpu/arm926ejs/start.o
 .rel.u_boot_list_2_cmd_2_nboot
                0x0000000040063598       0x20 arch/arm/cpu/arm926ejs/start.o
 .rel.u_boot_list_2_cmd_2_nand
                0x00000000400635b8       0x20 arch/arm/cpu/arm926ejs/start.o
 .rel.u_boot_list_2_cmd_2_ping
                0x00000000400635d8       0x20 arch/arm/cpu/arm926ejs/start.o
 .rel.u_boot_list_2_cmd_2_dhcp
                0x00000000400635f8       0x20 arch/arm/cpu/arm926ejs/start.o
 .rel.u_boot_list_2_cmd_2_bootp
                0x0000000040063618       0x20 arch/arm/cpu/arm926ejs/start.o
 .rel.u_boot_list_2_cmd_2_tftpboot
                0x0000000040063638       0x20 arch/arm/cpu/arm926ejs/start.o
 .rel.u_boot_list_2_cmd_2_nfs
                0x0000000040063658       0x20 arch/arm/cpu/arm926ejs/start.o
 .rel.u_boot_list_2_cmd_2_setenv
                0x0000000040063678       0x28 arch/arm/cpu/arm926ejs/start.o
 .rel.u_boot_list_2_cmd_2_env
                0x00000000400636a0       0x20 arch/arm/cpu/arm926ejs/start.o
 .rel.u_boot_list_2_cmd_2_saveenv
                0x00000000400636c0       0x20 arch/arm/cpu/arm926ejs/start.o
 .rel.data.cmd_env_sub
                0x00000000400636e0      0x120 arch/arm/cpu/arm926ejs/start.o
 .rel.u_boot_list_2_cmd_2_printenv
                0x0000000040063800       0x28 arch/arm/cpu/arm926ejs/start.o
 .rel.u_boot_list_2_cmd_2_editenv
                0x0000000040063828       0x28 arch/arm/cpu/arm926ejs/start.o
 .rel.u_boot_list_2_cmd_2_run
                0x0000000040063850       0x28 arch/arm/cpu/arm926ejs/start.o
 .rel.u_boot_list_2_cmd_2_setexpr
                0x0000000040063878       0x20 arch/arm/cpu/arm926ejs/start.o
 .rel.u_boot_list_2_cmd_2_source
                0x0000000040063898       0x20 arch/arm/cpu/arm926ejs/start.o
 .rel.u_boot_list_2_cmd_2_test
                0x00000000400638b8       0x20 arch/arm/cpu/arm926ejs/start.o
 .rel.u_boot_list_2_cmd_2_true
                0x00000000400638d8       0x18 arch/arm/cpu/arm926ejs/start.o
 .rel.u_boot_list_2_cmd_2_false
                0x00000000400638f0       0x18 arch/arm/cpu/arm926ejs/start.o
 .rel.u_boot_list_2_cmd_2_ubi
                0x0000000040063908       0x20 arch/arm/cpu/arm926ejs/start.o
 .rel.u_boot_list_2_cmd_2_ubifsumount
                0x0000000040063928       0x20 arch/arm/cpu/arm926ejs/start.o
 .rel.u_boot_list_2_cmd_2_ubifsload
                0x0000000040063948       0x20 arch/arm/cpu/arm926ejs/start.o
 .rel.u_boot_list_2_cmd_2_ubifsls
                0x0000000040063968       0x20 arch/arm/cpu/arm926ejs/start.o
 .rel.u_boot_list_2_cmd_2_ubifsmount
                0x0000000040063988       0x20 arch/arm/cpu/arm926ejs/start.o
 .rel.u_boot_list_2_cmd_2_usb
                0x00000000400639a8       0x20 arch/arm/cpu/arm926ejs/start.o
 .rel.u_boot_list_2_cmd_2_usbboot
                0x00000000400639c8       0x20 arch/arm/cpu/arm926ejs/start.o
 .rel.u_boot_list_2_cmd_2_version
                0x00000000400639e8       0x20 arch/arm/cpu/arm926ejs/start.o
 .rel.u_boot_list_2_cmd_2_imxtract
                0x0000000040063a08       0x20 arch/arm/cpu/arm926ejs/start.o
 .rel.u_boot_list_2_env_clbk_2_console
                0x0000000040063a28       0x10 arch/arm/cpu/arm926ejs/start.o
 .rel.data.av_  0x0000000040063a38      0x800 arch/arm/cpu/arm926ejs/start.o
 .rel.u_boot_list_2_env_clbk_2_callbacks
                0x0000000040064238       0x10 arch/arm/cpu/arm926ejs/start.o
 .rel.data.env_htab
                0x0000000040064248        0x8 arch/arm/cpu/arm926ejs/start.o
 .rel.u_boot_list_2_env_clbk_2_flags
                0x0000000040064250       0x10 arch/arm/cpu/arm926ejs/start.o
 .rel.data.env_name_spec
                0x0000000040064260        0x8 arch/arm/cpu/arm926ejs/start.o
 .rel.data.of_busses
                0x0000000000000000        0x0 arch/arm/cpu/arm926ejs/start.o
 .rel.data.hash_algo
                0x0000000000000000        0x0 arch/arm/cpu/arm926ejs/start.o
 .rel.data.reserved_list
                0x0000000040064268       0x58 arch/arm/cpu/arm926ejs/start.o
 .rel.u_boot_list_2_cmd_2_showvar
                0x00000000400642c0       0x20 arch/arm/cpu/arm926ejs/start.o
 .rel.u_boot_list_2_env_clbk_2_loadaddr
                0x00000000400642e0       0x10 arch/arm/cpu/arm926ejs/start.o
 .rel.data.stdio_names
                0x00000000400642f0       0x18 arch/arm/cpu/arm926ejs/start.o
 .rel.text.get_dev
                0x0000000040064308        0x8 arch/arm/cpu/arm926ejs/start.o
 .rel.text.get_device
                0x0000000040064310       0x10 arch/arm/cpu/arm926ejs/start.o
 .rel.text.get_device_and_partition
                0x0000000040064320       0x70 arch/arm/cpu/arm926ejs/start.o
 .rel.text.dev_print
                0x0000000040064390      0x110 arch/arm/cpu/arm926ejs/start.o
 .rel.text.print_part
                0x00000000400644a0       0xb0 arch/arm/cpu/arm926ejs/start.o
 .rel.text.get_partition_info_extended
                0x0000000040064550       0x80 arch/arm/cpu/arm926ejs/start.o
 .rel.text.test_block_type
                0x00000000400645d0       0x10 arch/arm/cpu/arm926ejs/start.o
 .rel.text.print_partition_extended
                0x00000000400645e0       0x30 arch/arm/cpu/arm926ejs/start.o
 .rel.text.print_part_dos
                0x0000000040064610        0x8 arch/arm/cpu/arm926ejs/start.o
 .rel.rodata.block_drvr
                0x0000000040064618       0x10 arch/arm/cpu/arm926ejs/start.o
 .rel.text.GregorianDay
                0x0000000040064628        0x8 arch/arm/cpu/arm926ejs/start.o
 .rel.text.to_tm
                0x0000000040064630        0x8 arch/arm/cpu/arm926ejs/start.o
 .rel.text.mxs_rtc_set_time
                0x0000000040064638        0x8 arch/arm/cpu/arm926ejs/start.o
 .rel.text.rtc_reset
                0x0000000040064640        0x8 arch/arm/cpu/arm926ejs/start.o
 .rel.text.mxs_dma_validate_chan
                0x0000000000000000        0x0 arch/arm/cpu/arm926ejs/start.o
 .rel.text.mxs_dma_release
                0x0000000040064648        0x8 arch/arm/cpu/arm926ejs/start.o
 .rel.text.mxs_dma_init_channel
                0x0000000040064650       0x10 arch/arm/cpu/arm926ejs/start.o
 .rel.text.mxs_dma_go
                0x0000000040064660        0x8 arch/arm/cpu/arm926ejs/start.o
 .rel.text.mxs_dma_circ_start
                0x0000000000000000        0x0 arch/arm/cpu/arm926ejs/start.o
 .rel.text.mxs_dma_desc_append
                0x0000000040064668        0x8 arch/arm/cpu/arm926ejs/start.o
 .rel.text.input_stdio_register
                0x0000000000000000        0x0 arch/arm/cpu/arm926ejs/start.o
 .rel.text.input_init
                0x0000000000000000        0x0 arch/arm/cpu/arm926ejs/start.o
 .rel.text.input_send_keycodes
                0x0000000000000000        0x0 arch/arm/cpu/arm926ejs/start.o
 .rel.rodata.kbd_to_ansi364
                0x0000000000000000        0x0 arch/arm/cpu/arm926ejs/start.o
 .rel.text.get_mtd_device
                0x0000000040064670        0x8 arch/arm/cpu/arm926ejs/start.o
 .rel.text.put_mtd_device
                0x0000000040064678       0x10 arch/arm/cpu/arm926ejs/start.o
 .rel.text.del_mtd_device
                0x0000000040064688       0x10 arch/arm/cpu/arm926ejs/start.o
 .rel.text.add_mtd_device
                0x0000000040064698       0x18 arch/arm/cpu/arm926ejs/start.o
 .rel.text.get_mtd_device_nm
                0x00000000400646b0        0x8 arch/arm/cpu/arm926ejs/start.o
 .rel.text.mtd_erase_callback
                0x00000000400646b8        0x8 arch/arm/cpu/arm926ejs/start.o
 .rel.text.del_mtd_partitions
                0x00000000400646c0        0x8 arch/arm/cpu/arm926ejs/start.o
 .rel.text.add_mtd_partitions
                0x00000000400646c8       0xd0 arch/arm/cpu/arm926ejs/start.o
 .rel.text.mxs_nand_ecc_write_oob
                0x0000000040064798        0x8 arch/arm/cpu/arm926ejs/start.o
 .rel.text.mxs_nand_get_dma_desc
                0x00000000400647a0        0x8 arch/arm/cpu/arm926ejs/start.o
 .rel.text.mxs_nand_write_buf
                0x00000000400647a8       0x18 arch/arm/cpu/arm926ejs/start.o
 .rel.text.mxs_nand_cmd_ctrl
                0x00000000400647c0       0x10 arch/arm/cpu/arm926ejs/start.o
 .rel.text.mxs_nand_read_buf
                0x00000000400647d0       0x18 arch/arm/cpu/arm926ejs/start.o
 .rel.text.mxs_nand_scan_bbt
                0x00000000400647e8       0x18 arch/arm/cpu/arm926ejs/start.o
 .rel.text.mxs_nand_init
                0x0000000040064800        0x8 arch/arm/cpu/arm926ejs/start.o
 .rel.text.mxs_nand_alloc_buffers
                0x0000000040064808       0x10 arch/arm/cpu/arm926ejs/start.o
 .rel.text.board_nand_init
                0x0000000040064818       0x70 arch/arm/cpu/arm926ejs/start.o
 .rel.text.mxs_nand_ecc_write_page
                0x0000000040064888       0x10 arch/arm/cpu/arm926ejs/start.o
 .rel.text.mxs_nand_ecc_read_page
                0x0000000040064898       0x10 arch/arm/cpu/arm926ejs/start.o
 .rel.text.nand_register
                0x00000000400648a8       0x28 arch/arm/cpu/arm926ejs/start.o
 .rel.text.nand_init
                0x00000000400648d0       0x20 arch/arm/cpu/arm926ejs/start.o
 .rel.text.nand_scan_ident
                0x00000000400648f0       0xf8 arch/arm/cpu/arm926ejs/start.o
 .rel.text.nand_select_chip
                0x00000000400649e8       0x20 arch/arm/cpu/arm926ejs/start.o
 .rel.text.nand_scan_tail
                0x0000000040064a08      0x158 arch/arm/cpu/arm926ejs/start.o
 .rel.text.nand_fill_oob
                0x0000000040064b60       0x20 arch/arm/cpu/arm926ejs/start.o
 .rel.text.nand_do_write_ops
                0x0000000040064b80        0x8 arch/arm/cpu/arm926ejs/start.o
 .rel.text.nand_transfer_oob
                0x0000000040064b88       0x20 arch/arm/cpu/arm926ejs/start.o
 .rel.text.nand_wait
                0x0000000040064ba8        0x8 arch/arm/cpu/arm926ejs/start.o
 .rel.text.write_bbt
                0x0000000040064bb0       0x40 arch/arm/cpu/arm926ejs/start.o
 .rel.text.verify_bbt_descr
                0x0000000040064bf0       0x20 arch/arm/cpu/arm926ejs/start.o
 .rel.text.create_bbt
                0x0000000040064c10       0x20 arch/arm/cpu/arm926ejs/start.o
 .rel.text.nand_default_bbt
                0x0000000040064c30       0x30 arch/arm/cpu/arm926ejs/start.o
 .rel.text.nand_calculate_ecc
                0x0000000040064c60        0x8 arch/arm/cpu/arm926ejs/start.o
 .rel.text.nand_read_skip_bad
                0x0000000040064c68       0x28 arch/arm/cpu/arm926ejs/start.o
 .rel.text.nand_write_skip_bad
                0x0000000040064c90       0x28 arch/arm/cpu/arm926ejs/start.o
 .rel.text.nand_erase_opts
                0x0000000040064cb8       0x48 arch/arm/cpu/arm926ejs/start.o
 .rel.rodata.nand_manuf_ids
                0x0000000040064d00       0x60 arch/arm/cpu/arm926ejs/start.o
 .rel.rodata.nand_flash_ids
                0x0000000040064d60      0x240 arch/arm/cpu/arm926ejs/start.o
 .rel.data.bbt_mirror_descr
                0x0000000040064fa0        0x8 arch/arm/cpu/arm926ejs/start.o
 .rel.data.bbt_main_no_oob_descr
                0x0000000040064fa8        0x8 arch/arm/cpu/arm926ejs/start.o
 .rel.data.bbt_mirror_no_oob_descr
                0x0000000040064fb0        0x8 arch/arm/cpu/arm926ejs/start.o
 .rel.data.bbt_main_descr
                0x0000000040064fb8        0x8 arch/arm/cpu/arm926ejs/start.o
 .rel.data.agand_flashbased
                0x0000000040064fc0        0x8 arch/arm/cpu/arm926ejs/start.o
 .rel.text.ubi_get_device
                0x0000000040064fc8        0x8 arch/arm/cpu/arm926ejs/start.o
 .rel.text.ubi_get_by_major
                0x0000000000000000        0x0 arch/arm/cpu/arm926ejs/start.o
 .rel.text.ubi_major2num
                0x0000000000000000        0x0 arch/arm/cpu/arm926ejs/start.o
 .rel.text.ubi_mtd_param_parse
                0x0000000040064fd0       0x40 arch/arm/cpu/arm926ejs/start.o
 .rel.text.ubi_detach_mtd_dev
                0x0000000040065010       0x20 arch/arm/cpu/arm926ejs/start.o
 .rel.text.ubi_exit
                0x0000000040065030       0x10 arch/arm/cpu/arm926ejs/start.o
 .rel.text.ubi_attach_mtd_dev
                0x0000000040065040      0x138 arch/arm/cpu/arm926ejs/start.o
 .rel.text.ubi_init
                0x0000000040065178       0x48 arch/arm/cpu/arm926ejs/start.o
 .rel.text.crc32_le
                0x00000000400651c0        0x8 arch/arm/cpu/arm926ejs/start.o
 .rel.text.ubi_eba_init_scan
                0x00000000400651c8       0x18 arch/arm/cpu/arm926ejs/start.o
 .rel.text.ubi_eba_copy_leb
                0x00000000400651e0       0x28 arch/arm/cpu/arm926ejs/start.o
 .rel.text.ubi_eba_write_leb_st
                0x0000000040065208       0x30 arch/arm/cpu/arm926ejs/start.o
 .rel.text.ubi_eba_write_leb
                0x0000000040065238       0x60 arch/arm/cpu/arm926ejs/start.o
 .rel.text.ubi_eba_atomic_leb_change
                0x0000000000000000        0x0 arch/arm/cpu/arm926ejs/start.o
 .rel.text.ubi_eba_read_leb
                0x0000000040065298       0x30 arch/arm/cpu/arm926ejs/start.o
 .rel.text.ubi_io_mark_bad
                0x00000000400652c8       0x18 arch/arm/cpu/arm926ejs/start.o
 .rel.text.ubi_io_is_bad
                0x00000000400652e0       0x10 arch/arm/cpu/arm926ejs/start.o
 .rel.text.do_sync_erase
                0x00000000400652f0       0x20 arch/arm/cpu/arm926ejs/start.o
 .rel.text.ubi_io_write
                0x0000000040065310       0x18 arch/arm/cpu/arm926ejs/start.o
 .rel.text.ubi_io_read
                0x0000000040065328       0x20 arch/arm/cpu/arm926ejs/start.o
 .rel.text.ubi_io_read_vid_hdr
                0x0000000040065348       0x38 arch/arm/cpu/arm926ejs/start.o
 .rel.text.ubi_io_read_ec_hdr
                0x0000000040065380       0x58 arch/arm/cpu/arm926ejs/start.o
 .rel.text.ubi_io_sync_erase
                0x00000000400653d8       0x38 arch/arm/cpu/arm926ejs/start.o
 .rel.text.ubi_leb_read
                0x0000000040065410       0x10 arch/arm/cpu/arm926ejs/start.o
 .rel.text.ubi_open_volume
                0x0000000040065420       0x10 arch/arm/cpu/arm926ejs/start.o
 .rel.text.validate_vid_hdr
                0x0000000040065430       0x10 arch/arm/cpu/arm926ejs/start.o
 .rel.text.add_to_list
                0x0000000040065440       0x20 arch/arm/cpu/arm926ejs/start.o
 .rel.text.ubi_scan_erase_peb
                0x0000000040065460       0x10 arch/arm/cpu/arm926ejs/start.o
 .rel.text.ubi_scan_get_free_peb
                0x0000000040065470       0x10 arch/arm/cpu/arm926ejs/start.o
 .rel.text.ubi_scan_add_used
                0x0000000040065480       0x28 arch/arm/cpu/arm926ejs/start.o
 .rel.text.ubi_scan
                0x00000000400654a8       0x78 arch/arm/cpu/arm926ejs/start.o
 .rel.text.ubi_add_volume
                0x0000000040065520       0x18 arch/arm/cpu/arm926ejs/start.o
 .rel.text.ubi_resize_volume
                0x0000000040065538        0x8 arch/arm/cpu/arm926ejs/start.o
 .rel.text.ubi_remove_volume
                0x0000000000000000        0x0 arch/arm/cpu/arm926ejs/start.o
 .rel.text.ubi_create_volume
                0x0000000040065540       0x28 arch/arm/cpu/arm926ejs/start.o
 .rel.text.create_vtbl
                0x0000000040065568       0x10 arch/arm/cpu/arm926ejs/start.o
 .rel.text.vtbl_check
                0x0000000040065578       0x28 arch/arm/cpu/arm926ejs/start.o
 .rel.text.ubi_read_volume_table
                0x00000000400655a0       0x98 arch/arm/cpu/arm926ejs/start.o
 .rel.text.ubi_change_vtbl_record
                0x0000000040065638        0x8 arch/arm/cpu/arm926ejs/start.o
 .rel.text.do_work
                0x0000000040065640       0x10 arch/arm/cpu/arm926ejs/start.o
 .rel.text.schedule_erase
                0x0000000040065650        0x8 arch/arm/cpu/arm926ejs/start.o
 .rel.text.ensure_wear_leveling
                0x0000000040065658        0x8 arch/arm/cpu/arm926ejs/start.o
 .rel.text.ubi_thread
                0x0000000000000000        0x0 arch/arm/cpu/arm926ejs/start.o
 .rel.text.ubi_wl_init_scan
                0x0000000040065660       0x18 arch/arm/cpu/arm926ejs/start.o
 .rel.text.erase_worker
                0x0000000040065678       0x58 arch/arm/cpu/arm926ejs/start.o
 .rel.text.ubi_wl_scrub_peb
                0x00000000400656d0       0x28 arch/arm/cpu/arm926ejs/start.o
 .rel.text.ubi_wl_put_peb
                0x00000000400656f8       0x20 arch/arm/cpu/arm926ejs/start.o
 .rel.text.wear_leveling_worker
                0x0000000040065718       0x28 arch/arm/cpu/arm926ejs/start.o
 .rel.text.ubi_wl_get_peb
                0x0000000040065740       0x30 arch/arm/cpu/arm926ejs/start.o
 .rel.text.fec_mdio_write
                0x0000000040065770        0x8 arch/arm/cpu/arm926ejs/start.o
 .rel.text.fec_mdio_read
                0x0000000040065778        0x8 arch/arm/cpu/arm926ejs/start.o
 .rel.text.fec_send
                0x0000000040065780        0x8 arch/arm/cpu/arm926ejs/start.o
 .rel.text.fec_init
                0x0000000040065788       0x10 arch/arm/cpu/arm926ejs/start.o
 .rel.text.fec_recv
                0x0000000040065798       0x10 arch/arm/cpu/arm926ejs/start.o
 .rel.text.fec_get_miibus
                0x00000000400657a8       0x30 arch/arm/cpu/arm926ejs/start.o
 .rel.text.fecmxc_initialize_multi
                0x00000000400657d8       0x68 arch/arm/cpu/arm926ejs/start.o
 .rel.text.serial_register
                0x0000000040065840        0x8 arch/arm/cpu/arm926ejs/start.o
 .rel.text.serial_reinit_all
                0x0000000000000000        0x0 arch/arm/cpu/arm926ejs/start.o
 .rel.text.get_current
                0x0000000040065848       0x10 arch/arm/cpu/arm926ejs/start.o
 .rel.text.on_baudrate
                0x0000000040065858       0x18 arch/arm/cpu/arm926ejs/start.o
 .rel.text.serial_assign
                0x0000000040065870       0x10 arch/arm/cpu/arm926ejs/start.o
 .rel.text.serial_stdio_init
                0x0000000040065880        0x8 arch/arm/cpu/arm926ejs/start.o
 .rel.text.pl01x_serial_init
                0x0000000040065888        0x8 arch/arm/cpu/arm926ejs/start.o
 .rel.text.default_serial_console
                0x0000000040065890        0x8 arch/arm/cpu/arm926ejs/start.o
 .rel.text.pl01x_serial_setbrg
                0x0000000040065898        0x8 arch/arm/cpu/arm926ejs/start.o
 .rel.text.pl01x_serial_initialize
                0x00000000400658a0        0x8 arch/arm/cpu/arm926ejs/start.o
 .rel.u_boot_list_2_env_clbk_2_baudrate
                0x00000000400658a8       0x10 arch/arm/cpu/arm926ejs/start.o
 .rel.data.pl01x_serial_drv
                0x00000000400658b8       0x30 arch/arm/cpu/arm926ejs/start.o
 .rel.text.spi_set_wordlen
                0x0000000000000000        0x0 arch/arm/cpu/arm926ejs/start.o
 .rel.text.asix_eth_before_probe
                0x00000000400658e8        0x8 arch/arm/cpu/arm926ejs/start.o
 .rel.text.asix_eth_get_info
                0x00000000400658f0       0x40 arch/arm/cpu/arm926ejs/start.o
 .rel.text.asix_init
                0x0000000040065930       0x18 arch/arm/cpu/arm926ejs/start.o
 .rel.text.asix_eth_probe
                0x0000000040065948        0x8 arch/arm/cpu/arm926ejs/start.o
 .rel.text.smsc95xx_eth_before_probe
                0x0000000040065950        0x8 arch/arm/cpu/arm926ejs/start.o
 .rel.text.smsc95xx_eth_get_info
                0x0000000040065958       0x40 arch/arm/cpu/arm926ejs/start.o
 .rel.text.smsc95xx_recv
                0x0000000040065998        0x8 arch/arm/cpu/arm926ejs/start.o
 .rel.text.smsc95xx_eth_probe
                0x00000000400659a0        0x8 arch/arm/cpu/arm926ejs/start.o
 .rel.text.smsc95xx_init
                0x00000000400659a8       0x20 arch/arm/cpu/arm926ejs/start.o
 .rel.text.is_eth_dev_on_usb_host
                0x0000000000000000        0x0 arch/arm/cpu/arm926ejs/start.o
 .rel.text.usb_host_eth_scan
                0x00000000400659c8       0x48 arch/arm/cpu/arm926ejs/start.o
 .rel.rodata.prob_dev
                0x0000000040065a10       0x30 arch/arm/cpu/arm926ejs/start.o
 .rel.text.__ehci_set_usbmode
                0x0000000040065a40        0x8 arch/arm/cpu/arm926ejs/start.o
 .rel.text.disable_periodic
                0x0000000040065a48        0x8 arch/arm/cpu/arm926ejs/start.o
 .rel.text.enable_periodic
                0x0000000040065a50        0x8 arch/arm/cpu/arm926ejs/start.o
 .rel.text.destroy_int_queue
                0x0000000040065a58       0x10 arch/arm/cpu/arm926ejs/start.o
 .rel.text.create_int_queue
                0x0000000040065a68        0x8 arch/arm/cpu/arm926ejs/start.o
 .rel.text.submit_int_msg
                0x0000000040065a70       0x18 arch/arm/cpu/arm926ejs/start.o
 .rel.text.ehci_td_buffer
                0x0000000040065a88        0x8 arch/arm/cpu/arm926ejs/start.o
 .rel.text.ehci_submit_async
                0x0000000040065a90       0x30 arch/arm/cpu/arm926ejs/start.o
 .rel.text.usb_lowlevel_init
                0x0000000040065ac0       0x20 arch/arm/cpu/arm926ejs/start.o
 .rel.text.ehci_shutdown
                0x0000000040065ae0        0x8 arch/arm/cpu/arm926ejs/start.o
 .rel.text.usb_lowlevel_stop
                0x0000000040065ae8        0x8 arch/arm/cpu/arm926ejs/start.o
 .rel.text.ehci_submit_root
                0x0000000040065af0       0x28 arch/arm/cpu/arm926ejs/start.o
 .rel.text.ehci_hcd_stop
                0x0000000040065b18       0x10 arch/arm/cpu/arm926ejs/start.o
 .rel.text.ehci_hcd_init
                0x0000000040065b28       0x10 arch/arm/cpu/arm926ejs/start.o
 .rel.text.disk_read
                0x0000000040065b38       0x10 arch/arm/cpu/arm926ejs/start.o
 .rel.text.get_name
                0x0000000040065b48        0x8 arch/arm/cpu/arm926ejs/start.o
 .rel.text.read_bootsectandvi
                0x0000000040065b50       0x20 arch/arm/cpu/arm926ejs/start.o
 .rel.text.file_fat_detectfs
                0x0000000040065b70       0xb0 arch/arm/cpu/arm926ejs/start.o
 .rel.text.get_cluster
                0x0000000040065c20        0x8 arch/arm/cpu/arm926ejs/start.o
 .rel.text.get_vfatname
                0x0000000040065c28       0x18 arch/arm/cpu/arm926ejs/start.o
 .rel.text.do_fat_read_at
                0x0000000040065c40       0x68 arch/arm/cpu/arm926ejs/start.o
 .rel.text.file_fat_read_at
                0x0000000040065ca8        0x8 arch/arm/cpu/arm926ejs/start.o
 .rel.text.fat_read_file
                0x0000000040065cb0        0x8 arch/arm/cpu/arm926ejs/start.o
 .rel.text.fat_set_blk_dev
                0x0000000040065cb8       0x28 arch/arm/cpu/arm926ejs/start.o
 .rel.text.fat_register_device
                0x0000000000000000        0x0 arch/arm/cpu/arm926ejs/start.o
 .rel.text.file_getfsname
                0x0000000000000000        0x0 arch/arm/cpu/arm926ejs/start.o
 .rel.text.file_read
                0x0000000000000000        0x0 arch/arm/cpu/arm926ejs/start.o
 .rel.text.file_ls
                0x0000000000000000        0x0 arch/arm/cpu/arm926ejs/start.o
 .rel.text.file_detectfs
                0x0000000000000000        0x0 arch/arm/cpu/arm926ejs/start.o
 .rel.text.file_cd
                0x0000000000000000        0x0 arch/arm/cpu/arm926ejs/start.o
 .rel.text.fs_close
                0x0000000040065ce0       0x10 arch/arm/cpu/arm926ejs/start.o
 .rel.text.fs_ls
                0x0000000040065cf0       0x10 arch/arm/cpu/arm926ejs/start.o
 .rel.text.fs_write
                0x0000000000000000        0x0 arch/arm/cpu/arm926ejs/start.o
 .rel.text.fs_probe_unsupported
                0x0000000040065d00        0x8 arch/arm/cpu/arm926ejs/start.o
 .rel.text.fs_read
                0x0000000040065d08       0x18 arch/arm/cpu/arm926ejs/start.o
 .rel.text.fs_set_blk_dev
                0x0000000040065d20       0x28 arch/arm/cpu/arm926ejs/start.o
 .rel.text.do_save
                0x0000000000000000        0x0 arch/arm/cpu/arm926ejs/start.o
 .rel.text.do_ls
                0x0000000040065d48        0x8 arch/arm/cpu/arm926ejs/start.o
 .rel.text.do_load
                0x0000000040065d50       0x48 arch/arm/cpu/arm926ejs/start.o
 .rel.text.crc16
                0x0000000040065d98        0x8 arch/arm/cpu/arm926ejs/start.o
 .rel.text.ubifs_ro_mode
                0x0000000000000000        0x0 arch/arm/cpu/arm926ejs/start.o
 .rel.text.ubifs_check_node
                0x0000000040065da0       0x30 arch/arm/cpu/arm926ejs/start.o
 .rel.text.ubifs_read_node
                0x0000000040065dd0       0x30 arch/arm/cpu/arm926ejs/start.o
 .rel.text.ubifs_prepare_node
                0x0000000000000000        0x0 arch/arm/cpu/arm926ejs/start.o
 .rel.text.ubifs_add_to_cat
                0x0000000040065e00       0x38 arch/arm/cpu/arm926ejs/start.o
 .rel.text.ubifs_unpack_bits
                0x0000000040065e38       0x40 arch/arm/cpu/arm926ejs/start.o
 .rel.text.check_lpt_type
                0x0000000040065e78       0x10 arch/arm/cpu/arm926ejs/start.o
 .rel.text.check_lpt_crc
                0x0000000040065e88       0x10 arch/arm/cpu/arm926ejs/start.o
 .rel.text.ubifs_read_nnode
                0x0000000040065e98       0x10 arch/arm/cpu/arm926ejs/start.o
 .rel.text.ubifs_get_pnode
                0x0000000040065ea8       0x10 arch/arm/cpu/arm926ejs/start.o
 .rel.text.ubifs_calc_lpt_geom
                0x0000000040065eb8       0x18 arch/arm/cpu/arm926ejs/start.o
 .rel.text.ubifs_read_master
                0x0000000040065ed0       0x20 arch/arm/cpu/arm926ejs/start.o
 .rel.text.ubifs_clear_orphans
                0x0000000040065ef0       0x10 arch/arm/cpu/arm926ejs/start.o
 .rel.text.ubifs_mount_orphans
                0x0000000040065f00       0x18 arch/arm/cpu/arm926ejs/start.o
 .rel.text.ubifs_clean_lebs
                0x0000000000000000        0x0 arch/arm/cpu/arm926ejs/start.o
 .rel.text.recover_head
                0x0000000000000000        0x0 arch/arm/cpu/arm926ejs/start.o
 .rel.text.ubifs_recover_leb
                0x0000000040065f18       0x18 arch/arm/cpu/arm926ejs/start.o
 .rel.text.ubifs_recover_log_leb
                0x0000000040065f30       0x20 arch/arm/cpu/arm926ejs/start.o
 .rel.text.ubifs_recover_master_node
                0x0000000040065f50       0x10 arch/arm/cpu/arm926ejs/start.o
 .rel.text.insert_node
                0x0000000040065f60       0x10 arch/arm/cpu/arm926ejs/start.o
 .rel.text.ubifs_validate_entry
                0x0000000040065f70       0x28 arch/arm/cpu/arm926ejs/start.o
 .rel.text.ubifs_replay_journal
                0x0000000040065f98       0xc8 arch/arm/cpu/arm926ejs/start.o
 .rel.text.ubifs_read_superblock
                0x0000000040066060       0x70 arch/arm/cpu/arm926ejs/start.o
 .rel.text.ubifs_scanned_corruption
                0x00000000400660d0       0x10 arch/arm/cpu/arm926ejs/start.o
 .rel.text.ubifs_start_scan
                0x00000000400660e0       0x10 arch/arm/cpu/arm926ejs/start.o
 .rel.text.ubifs_scan_a_node
                0x00000000400660f0       0x10 arch/arm/cpu/arm926ejs/start.o
 .rel.text.ubifs_scan
                0x0000000040066100       0x28 arch/arm/cpu/arm926ejs/start.o
 .rel.text.ubifs_umount
                0x0000000040066128        0x8 arch/arm/cpu/arm926ejs/start.o
 .rel.text.iput
                0x0000000040066130       0x18 arch/arm/cpu/arm926ejs/start.o
 .rel.text.ubifs_iget
                0x0000000040066148       0x48 arch/arm/cpu/arm926ejs/start.o
 .rel.text.ubifs_get_sb
                0x0000000040066190      0x118 arch/arm/cpu/arm926ejs/start.o
 .rel.text.ubifs_mount
                0x00000000400662a8       0x28 arch/arm/cpu/arm926ejs/start.o
 .rel.text.insert_old_idx
                0x00000000400662d0       0x10 arch/arm/cpu/arm926ejs/start.o
 .rel.text.fallible_read_node
                0x00000000400662e0       0x10 arch/arm/cpu/arm926ejs/start.o
 .rel.text.ubifs_tnc_bulk_read
                0x0000000000000000        0x0 arch/arm/cpu/arm926ejs/start.o
 .rel.text.ubifs_tnc_add_nm
                0x00000000400662f0        0x8 arch/arm/cpu/arm926ejs/start.o
 .rel.text.ubifs_tnc_read_node
                0x00000000400662f8       0x10 arch/arm/cpu/arm926ejs/start.o
 .rel.text.ubifs_load_znode
                0x0000000040066308       0x10 arch/arm/cpu/arm926ejs/start.o
 .rel.text.ubifs_compressors_init
                0x0000000040066318       0x20 arch/arm/cpu/arm926ejs/start.o
 .rel.text.ubifs_findfile
                0x0000000040066338       0x30 arch/arm/cpu/arm926ejs/start.o
 .rel.text.ubifs_ls
                0x0000000040066368       0x90 arch/arm/cpu/arm926ejs/start.o
 .rel.text.ubifs_decompress
                0x00000000400663f8       0x28 arch/arm/cpu/arm926ejs/start.o
 .rel.text.read_block
                0x0000000040066420       0x10 arch/arm/cpu/arm926ejs/start.o
 .rel.text.ubifs_load
                0x0000000040066430       0x50 arch/arm/cpu/arm926ejs/start.o
 .rel.rodata.filesystems
                0x0000000000000000        0x0 arch/arm/cpu/arm926ejs/start.o
 .rel.data.fstypes
                0x0000000040066480       0x48 arch/arm/cpu/arm926ejs/start.o
 .rel.data.ubifs_fs_type
                0x00000000400664c8       0x10 arch/arm/cpu/arm926ejs/start.o
 .rel.data.lzo_compr
                0x00000000400664d8       0x18 arch/arm/cpu/arm926ejs/start.o
 .rel.data.none_compr
                0x00000000400664f0       0x10 arch/arm/cpu/arm926ejs/start.o
 .rel.data.zlib_compr
                0x0000000040066500       0x18 arch/arm/cpu/arm926ejs/start.o
 .rel.text.cyg_crc16
                0x0000000040066518        0x8 arch/arm/cpu/arm926ejs/start.o
 .rel.text.crc32_no_comp
                0x0000000040066520        0x8 arch/arm/cpu/arm926ejs/start.o
 .rel.text.crc7
                0x0000000000000000        0x0 arch/arm/cpu/arm926ejs/start.o
 .rel.text.print_size
                0x0000000040066528       0x28 arch/arm/cpu/arm926ejs/start.o
 .rel.text.display_options
                0x0000000000000000        0x0 arch/arm/cpu/arm926ejs/start.o
 .rel.text.print_buffer
                0x0000000040066550       0x28 arch/arm/cpu/arm926ejs/start.o
 .rel.text.zunzip
                0x0000000040066578       0x28 arch/arm/cpu/arm926ejs/start.o
 .rel.text.gunzip
                0x00000000400665a0       0x10 arch/arm/cpu/arm926ejs/start.o
 .rel.text.hang
                0x00000000400665b0        0x8 arch/arm/cpu/arm926ejs/start.o
 .rel.text.hdestroy_r
                0x00000000400665b8        0x8 arch/arm/cpu/arm926ejs/start.o
 .rel.text.hcreate_r
                0x00000000400665c0        0x8 arch/arm/cpu/arm926ejs/start.o
 .rel.text.match_string
                0x00000000400665c8        0x8 arch/arm/cpu/arm926ejs/start.o
 .rel.text.hexport_r
                0x00000000400665d0       0x18 arch/arm/cpu/arm926ejs/start.o
 .rel.text.hsearch_r
                0x00000000400665e8        0x8 arch/arm/cpu/arm926ejs/start.o
 .rel.text.hdelete_r
                0x00000000400665f0        0x8 arch/arm/cpu/arm926ejs/start.o
 .rel.text.himport_r
                0x00000000400665f8       0x20 arch/arm/cpu/arm926ejs/start.o
 .rel.text.hmatch_r
                0x0000000040066618        0x8 arch/arm/cpu/arm926ejs/start.o
 .rel.text.skip_spaces
                0x0000000000000000        0x0 arch/arm/cpu/arm926ejs/start.o
 .rel.text.strim
                0x0000000040066620        0x8 arch/arm/cpu/arm926ejs/start.o
 .rel.text.lmb_alloc_base
                0x0000000040066628        0x8 arch/arm/cpu/arm926ejs/start.o
 .rel.text.lzop_decompress
                0x0000000040066630        0x8 arch/arm/cpu/arm926ejs/start.o
 .rel.text.strncasecmp
                0x0000000000000000        0x0 arch/arm/cpu/arm926ejs/start.o
 .rel.text.strtok
                0x0000000000000000        0x0 arch/arm/cpu/arm926ejs/start.o
 .rel.text.strmhz
                0x0000000000000000        0x0 arch/arm/cpu/arm926ejs/start.o
 .rel.text.simple_strtoul
                0x0000000040066638        0x8 arch/arm/cpu/arm926ejs/start.o
 .rel.text.simple_strtoull
                0x0000000040066640        0x8 arch/arm/cpu/arm926ejs/start.o
 .rel.text.simple_itoa
                0x0000000040066648        0x8 arch/arm/cpu/arm926ejs/start.o
 .rel.text.__assert_fail
                0x0000000000000000        0x0 arch/arm/cpu/arm926ejs/start.o
 .rel.text.string
                0x0000000040066650        0x8 arch/arm/cpu/arm926ejs/start.o
 .rel.text.number
                0x0000000040066658        0x8 arch/arm/cpu/arm926ejs/start.o
 .rel.text.vsprintf
                0x0000000040066660       0x10 arch/arm/cpu/arm926ejs/start.o
 .rel.text.print_grouped_ull
                0x0000000000000000        0x0 arch/arm/cpu/arm926ejs/start.o
 .rel.text.inflate_fast
                0x0000000040066670       0x18 arch/arm/cpu/arm926ejs/start.o
 .rel.text.inflate_table
                0x0000000040066688       0x20 arch/arm/cpu/arm926ejs/start.o
 .rel.text.inflateInit2_
                0x00000000400666a8       0x10 arch/arm/cpu/arm926ejs/start.o
 .rel.text.inflate
                0x00000000400666b8      0x188 arch/arm/cpu/arm926ejs/start.o
 .rel.rodata.z_errmsg
                0x0000000000000000        0x0 arch/arm/cpu/arm926ejs/start.o
 .rel.text.fdt_next_tag
                0x0000000040066840       0x48 arch/arm/cpu/arm926ejs/start.o
 .rel.text.fdt_create_empty_tree
                0x0000000000000000        0x0 arch/arm/cpu/arm926ejs/start.o
 .rel.text.fdt_node_check_compatible
                0x0000000000000000        0x0 arch/arm/cpu/arm926ejs/start.o
 .rel.text.fdt_get_phandle
                0x0000000000000000        0x0 arch/arm/cpu/arm926ejs/start.o
 .rel.text.fdt_get_alias_namelen
                0x0000000040066888        0x8 arch/arm/cpu/arm926ejs/start.o
 .rel.text.fdt_strerror
                0x0000000040066890       0x20 arch/arm/cpu/arm926ejs/start.o
 .rel.text.fdt_find_regions
                0x0000000000000000        0x0 arch/arm/cpu/arm926ejs/start.o
 .rel.rodata.fdt_errtable
                0x00000000400668b0       0x58 arch/arm/cpu/arm926ejs/start.o
 .rel.text.ArpInit
                0x0000000040066908       0x30 arch/arm/cpu/arm926ejs/start.o
 .rel.text.ArpReceive
                0x0000000040066938       0x40 arch/arm/cpu/arm926ejs/start.o
 .rel.text.arp_raw_request
                0x0000000040066978       0x18 arch/arm/cpu/arm926ejs/start.o
 .rel.text.ArpRequest
                0x0000000040066990       0x38 arch/arm/cpu/arm926ejs/start.o
 .rel.text.ArpTimeoutCheck
                0x00000000400669c8       0x20 arch/arm/cpu/arm926ejs/start.o
 .rel.text.DhcpOptionsProcess
                0x00000000400669e8       0x68 arch/arm/cpu/arm926ejs/start.o
 .rel.text.BootpRequest
                0x0000000040066a50       0x50 arch/arm/cpu/arm926ejs/start.o
 .rel.text.DhcpHandler
                0x0000000040066aa0       0x78 arch/arm/cpu/arm926ejs/start.o
 .rel.text.BootpTimeout
                0x0000000040066b18       0x18 arch/arm/cpu/arm926ejs/start.o
 .rel.text.eth_get_dev_by_index
                0x0000000040066b30        0x8 arch/arm/cpu/arm926ejs/start.o
 .rel.text.eth_get_dev_index
                0x0000000040066b38        0x8 arch/arm/cpu/arm926ejs/start.o
 .rel.text.eth_halt
                0x0000000040066b40        0x8 arch/arm/cpu/arm926ejs/start.o
 .rel.text.eth_send
                0x0000000040066b48        0x8 arch/arm/cpu/arm926ejs/start.o
 .rel.text.eth_rx
                0x0000000040066b50        0x8 arch/arm/cpu/arm926ejs/start.o
 .rel.text.eth_get_name
                0x0000000040066b58       0x10 arch/arm/cpu/arm926ejs/start.o
 .rel.text.eth_current_changed
                0x0000000040066b68       0x10 arch/arm/cpu/arm926ejs/start.o
 .rel.text.eth_set_current
                0x0000000040066b78       0x20 arch/arm/cpu/arm926ejs/start.o
 .rel.text.eth_try_another
                0x0000000040066b98       0x28 arch/arm/cpu/arm926ejs/start.o
 .rel.text.eth_unregister
                0x0000000040066bc0       0x10 arch/arm/cpu/arm926ejs/start.o
 .rel.text.eth_register
                0x0000000040066bd0       0x18 arch/arm/cpu/arm926ejs/start.o
 .rel.text.eth_setenv_enetaddr
                0x0000000040066be8        0x8 arch/arm/cpu/arm926ejs/start.o
 .rel.text.eth_get_dev_by_name
                0x0000000040066bf0       0x28 arch/arm/cpu/arm926ejs/start.o
 .rel.text.eth_getenv_enetaddr_by_index
                0x0000000040066c18       0x10 arch/arm/cpu/arm926ejs/start.o
 .rel.text.eth_init
                0x0000000040066c28       0x20 arch/arm/cpu/arm926ejs/start.o
 .rel.text.eth_write_hwaddr
                0x0000000040066c48       0x48 arch/arm/cpu/arm926ejs/start.o
 .rel.text.eth_initialize
                0x0000000040066c90       0x90 arch/arm/cpu/arm926ejs/start.o
 .rel.text.on_bootfile
                0x0000000040066d20        0x8 arch/arm/cpu/arm926ejs/start.o
 .rel.text.startAgainTimeout
                0x0000000040066d28        0x8 arch/arm/cpu/arm926ejs/start.o
 .rel.text.net_get_udp_handler
                0x0000000000000000        0x0 arch/arm/cpu/arm926ejs/start.o
 .rel.text.net_set_udp_handler
                0x0000000040066d30       0x10 arch/arm/cpu/arm926ejs/start.o
 .rel.text.net_get_arp_handler
                0x0000000040066d40        0x8 arch/arm/cpu/arm926ejs/start.o
 .rel.text.net_set_arp_handler
                0x0000000000000000        0x0 arch/arm/cpu/arm926ejs/start.o
 .rel.text.NetEthHdrSize
                0x0000000040066d48        0x8 arch/arm/cpu/arm926ejs/start.o
 .rel.text.VLAN_to_string
                0x0000000000000000        0x0 arch/arm/cpu/arm926ejs/start.o
 .rel.text.ip_to_string
                0x0000000040066d50        0x8 arch/arm/cpu/arm926ejs/start.o
 .rel.text.NetSetTimeout
                0x0000000040066d58       0x18 arch/arm/cpu/arm926ejs/start.o
 .rel.text.net_set_ip_header
                0x0000000040066d70        0x8 arch/arm/cpu/arm926ejs/start.o
 .rel.text.net_set_udp_header
                0x0000000040066d78        0x8 arch/arm/cpu/arm926ejs/start.o
 .rel.text.net_update_ether
                0x0000000040066d80        0x8 arch/arm/cpu/arm926ejs/start.o
 .rel.text.NetSetEther
                0x0000000040066d88       0x10 arch/arm/cpu/arm926ejs/start.o
 .rel.text.NetReceive
                0x0000000040066d98       0x38 arch/arm/cpu/arm926ejs/start.o
 .rel.text.NetSendUDPPacket
                0x0000000040066dd0       0x40 arch/arm/cpu/arm926ejs/start.o
 .rel.text.NetStartAgain
                0x0000000040066e10       0x60 arch/arm/cpu/arm926ejs/start.o
 .rel.text.NetInitLoop
                0x0000000040066e70       0x78 arch/arm/cpu/arm926ejs/start.o
 .rel.text.net_init
                0x0000000040066ee8       0x38 arch/arm/cpu/arm926ejs/start.o
 .rel.text.NetLoop
                0x0000000040066f20      0x1a0 arch/arm/cpu/arm926ejs/start.o
 .rel.text.net_auto_load
                0x00000000400670c0       0x18 arch/arm/cpu/arm926ejs/start.o
 .rel.text.rpc_add_credentials
                0x00000000400670d8        0x8 arch/arm/cpu/arm926ejs/start.o
 .rel.text.rpc_lookup_reply
                0x00000000400670e0       0x18 arch/arm/cpu/arm926ejs/start.o
 .rel.text.nfs_mount_reply
                0x00000000400670f8       0x18 arch/arm/cpu/arm926ejs/start.o
 .rel.text.nfs_umountall_reply
                0x0000000040067110       0x18 arch/arm/cpu/arm926ejs/start.o
 .rel.text.nfs_lookup_reply
                0x0000000040067128       0x10 arch/arm/cpu/arm926ejs/start.o
 .rel.text.rpc_req
                0x0000000040067138       0x38 arch/arm/cpu/arm926ejs/start.o
 .rel.text.nfs_umountall_req
                0x0000000040067170       0x10 arch/arm/cpu/arm926ejs/start.o
 .rel.text.nfs_lookup_req
                0x0000000040067180        0x8 arch/arm/cpu/arm926ejs/start.o
 .rel.text.nfs_read_req
                0x0000000040067188        0x8 arch/arm/cpu/arm926ejs/start.o
 .rel.text.nfs_readlink_req
                0x0000000040067190        0x8 arch/arm/cpu/arm926ejs/start.o
 .rel.text.NfsSend
                0x0000000040067198       0x60 arch/arm/cpu/arm926ejs/start.o
 .rel.text.NfsStart
                0x00000000400671f8       0xe0 arch/arm/cpu/arm926ejs/start.o
 .rel.text.nfs_readlink_reply
                0x00000000400672d8       0x18 arch/arm/cpu/arm926ejs/start.o
 .rel.text.nfs_read_reply
                0x00000000400672f0       0x28 arch/arm/cpu/arm926ejs/start.o
 .rel.text.NfsHandler
                0x0000000040067318       0xa8 arch/arm/cpu/arm926ejs/start.o
 .rel.text.NfsTimeout
                0x00000000400673c0       0x20 arch/arm/cpu/arm926ejs/start.o
 .rel.text.ping_receive
                0x00000000400673e0       0x18 arch/arm/cpu/arm926ejs/start.o
 .rel.text.ping_start
                0x00000000400673f8       0x58 arch/arm/cpu/arm926ejs/start.o
 .rel.text.ping_timeout
                0x0000000040067450        0x8 arch/arm/cpu/arm926ejs/start.o
 .rel.text.TftpSend
                0x0000000040067458       0xb8 arch/arm/cpu/arm926ejs/start.o
 .rel.text.TftpStart
                0x0000000040067510      0x130 arch/arm/cpu/arm926ejs/start.o
 .rel.text.TftpTimeout
                0x0000000040067640       0x40 arch/arm/cpu/arm926ejs/start.o
 .rel.text.TftpHandler
                0x0000000040067680       0xc0 arch/arm/cpu/arm926ejs/start.o
 .rel.u_boot_list_2_env_clbk_2_bootfile
                0x0000000040067740       0x10 arch/arm/cpu/arm926ejs/start.o
 .rel.text.raise
                0x0000000040067750        0x8 arch/arm/cpu/arm926ejs/start.o

.rel_dyn_end    0x0000000040067758        0x0
 *(.__rel_dyn_end)
 .__rel_dyn_end
                0x0000000040067758        0x0 arch/arm/lib/built-in.o
                0x0000000040067758                _end = .
                0x0000000040068000                . = ALIGN (0x1000)

.mmutable
 *(.mmutable)

.bss_start      0x000000004005f630        0x0
 *(.__bss_start)
 .__bss_start   0x000000004005f630        0x0 arch/arm/lib/built-in.o
                0x000000004005f630                __bss_start
                0x000000004005f630                __bss_base = .

.bss            0x000000004005f630    0x4f9d8
 *(.bss*)
 .bss.monitor_flash_len
                0x000000004005f630        0x4 arch/arm/lib/built-in.o
                0x000000004005f630                monitor_flash_len
 .bss.params    0x000000004005f634        0x4 arch/arm/lib/built-in.o
 .bss.images    0x000000004005f638      0x130 common/built-in.o
                0x000000004005f638                images
 .bss.data.4855
                0x000000004005f768      0x400 common/built-in.o
 .bss.working_fdt
                0x000000004005fb68        0x4 common/built-in.o
                0x000000004005fb68                working_fdt
 .bss.send_parms
                0x000000004005fb6c       0x14 common/built-in.o
 .bss.os_data_addr_saved
                0x000000004005fb80        0x4 common/built-in.o
 .bss.his_pad_char
                0x000000004005fb84        0x1 common/built-in.o
 *fill*         0x000000004005fb85        0x3 
 .bss.a_b       0x000000004005fb88       0x18 common/built-in.o
 .bss.os_data_char
                0x000000004005fba0        0x4 common/built-in.o
 .bss.os_data_state
                0x000000004005fba4        0x4 common/built-in.o
 .bss.k_data_escape
                0x000000004005fba8        0x4 common/built-in.o
 .bss.his_pad_count
                0x000000004005fbac        0x4 common/built-in.o
 .bss.os_data_addr
                0x000000004005fbb0        0x4 common/built-in.o
 .bss.send_ptr  0x000000004005fbb4        0x4 common/built-in.o
 .bss.bin_start_address
                0x000000004005fbb8        0x4 common/built-in.o
 .bss.his_quote
                0x000000004005fbbc        0x1 common/built-in.o
 *fill*         0x000000004005fbbd        0x3 
 .bss.os_data_init
                0x000000004005fbc0        0x4 common/built-in.o
 .bss.his_eol   0x000000004005fbc4        0x1 common/built-in.o
 *fill*         0x000000004005fbc5        0x3 
 .bss.k_data_escape_saved
                0x000000004005fbc8        0x4 common/built-in.o
 .bss.os_data_state_saved
                0x000000004005fbcc        0x4 common/built-in.o
 .bss.dp_last_addr
                0x000000004005fbd0        0x4 common/built-in.o
 .bss.base_address
                0x000000004005fbd4        0x4 common/built-in.o
 .bss.mm_last_size
                0x000000004005fbd8        0x4 common/built-in.o
 .bss.mm_last_addr
                0x000000004005fbdc        0x4 common/built-in.o
 .bss.dp_last_size
                0x000000004005fbe0        0x4 common/built-in.o
 .bss.last_data
                0x000000004005fbe4        0x4 common/built-in.o
 .bss.last_reg_hi
                0x000000004005fbe8        0x4 common/built-in.o
 .bss.last_addr_lo
                0x000000004005fbec        0x4 common/built-in.o
 .bss.last_op   0x000000004005fbf0        0x4 common/built-in.o
 .bss.last_addr_hi
                0x000000004005fbf4        0x4 common/built-in.o
 .bss.last_reg_lo
                0x000000004005fbf8        0x4 common/built-in.o
 .bss.last_ids  0x000000004005fbfc       0x80 common/built-in.o
 .bss.current_mtd_dev
                0x000000004005fc7c        0x4 common/built-in.o
                0x000000004005fc7c                current_mtd_dev
 .bss.initialized.6155
                0x000000004005fc80        0x4 common/built-in.o
 .bss.last_partition
                0x000000004005fc84       0x10 common/built-in.o
 .bss.last_parts
                0x000000004005fc94      0x200 common/built-in.o
 .bss.current_mtd_partnum
                0x000000004005fe94        0x1 common/built-in.o
                0x000000004005fe94                current_mtd_partnum
 *fill*         0x000000004005fe95        0x3 
 .bss.mtdids    0x000000004005fe98        0x8 common/built-in.o
 .bss.devices   0x000000004005fea0        0x8 common/built-in.o
 *fill*         0x000000004005fea8        0x0 
 .bss.last.5044
                0x000000004005fea8        0x8 common/built-in.o
 .bss.ubi       0x000000004005feb0        0x4 common/built-in.o
 .bss.ubi_dev   0x000000004005feb4       0x5c common/built-in.o
 .bss.ubi_initialized
                0x000000004005ff10        0x4 common/built-in.o
 .bss.buffer    0x000000004005ff14       0x50 common/built-in.o
 .bss.ubifs_initialized
                0x000000004005ff64        0x4 common/built-in.o
 .bss.ubifs_mounted
                0x000000004005ff68        0x4 common/built-in.o
 .bss.tmp_buf   0x000000004005ff6c      0x400 common/built-in.o
 .bss.tmp_buf.3896
                0x000000004006036c      0x200 common/built-in.o
 .bss.ctrlc_was_pressed
                0x000000004006056c        0x4 common/built-in.o
 .bss.ctrlc_disabled
                0x0000000040060570        0x4 common/built-in.o
 .bss.mem_malloc_brk
                0x0000000040060574        0x4 common/built-in.o
                0x0000000040060574                mem_malloc_brk
 .bss.max_total_mem
                0x0000000040060578        0x4 common/built-in.o
 .bss.max_sbrked_mem
                0x000000004006057c        0x4 common/built-in.o
 .bss.current_mallinfo
                0x0000000040060580       0x28 common/built-in.o
 .bss.mem_malloc_end
                0x00000000400605a8        0x4 common/built-in.o
                0x00000000400605a8                mem_malloc_end
 .bss.top_pad   0x00000000400605ac        0x4 common/built-in.o
 .bss.mem_malloc_start
                0x00000000400605b0        0x4 common/built-in.o
                0x00000000400605b0                mem_malloc_start
 .bss.callback_list
                0x00000000400605b4        0x4 common/built-in.o
 .bss.flags_list
                0x00000000400605b8        0x4 common/built-in.o
 .bss.env_flags
                0x00000000400605bc        0x1 common/built-in.o
 *fill*         0x00000000400605bd        0x3 
 .bss.env_ptr   0x00000000400605c0        0x4 common/built-in.o
                0x00000000400605c0                env_ptr
 .bss.flag_repeat
                0x00000000400605c4        0x4 common/built-in.o
 .bss.last_return_code
                0x00000000400605c8        0x4 common/built-in.o
 .bss.buf.4750  0x00000000400605cc       0x28 common/built-in.o
 .bss.ifs       0x00000000400605f4        0x4 common/built-in.o
 .bss.the_command.4057
                0x00000000400605f8      0x400 common/built-in.o
 .bss.map       0x00000000400609f8      0x100 common/built-in.o
 .bss.do_repeat
                0x0000000040060af8        0x4 common/built-in.o
 .bss.top_vars  0x0000000040060afc        0x4 common/built-in.o
 .bss.hist_list
                0x0000000040060b00       0x50 common/built-in.o
 .bss.hist_lines
                0x0000000040060b50     0x5014 common/built-in.o
 .bss.hist_max  0x0000000040065b64        0x4 common/built-in.o
 .bss.initted.5239
                0x0000000040065b68        0x4 common/built-in.o
 .bss.hist_add_idx
                0x0000000040065b6c        0x4 common/built-in.o
 .bss.hist_num  0x0000000040065b70        0x4 common/built-in.o
 .bss.console_buffer
                0x0000000040065b74      0x404 common/built-in.o
                0x0000000040065b74                console_buffer
 .bss.current_mii
                0x0000000040065f78        0x4 common/built-in.o
 .bss.mii_devs  0x0000000040065f7c        0x8 common/built-in.o
 .bss.devs      0x0000000040065f84       0x3c common/built-in.o
 .bss.stdio_devices
                0x0000000040065fc0        0xc common/built-in.o
                0x0000000040065fc0                stdio_devices
 .bss.dev_index
                0x0000000040065fcc        0x4 common/built-in.o
 *fill*         0x0000000040065fd0       0x30 
 .bss.usb_dev   0x0000000040066000    0x13000 common/built-in.o
 .bss.asynch_allowed
                0x0000000040079000        0x4 common/built-in.o
 .bss.usb_started
                0x0000000040079004        0x1 common/built-in.o
                0x0000000040079004                usb_started
 *fill*         0x0000000040079005        0x3 
 .bss.usb_hub_index
                0x0000000040079008        0x4 common/built-in.o
 .bss.hub_dev   0x000000004007900c      0x100 common/built-in.o
 .bss.usb_stor  0x000000004007910c      0x104 common/built-in.o
 .bss.usb_dev_desc
                0x0000000040079210      0x244 common/built-in.o
 .bss.usb_max_devs
                0x0000000040079454        0x4 common/built-in.o
 .bss.CBWTag    0x0000000040079458        0x4 common/built-in.o
 *fill*         0x000000004007945c       0x24 
 .bss.usb_ccb   0x0000000040079480       0xc0 common/built-in.o
 .bss.xyz       0x0000000040079540      0x434 common/built-in.o
 .bss.mxs_dma_channels
                0x0000000040079974      0x280 drivers/dma/built-in.o
 .bss.mtd_table
                0x0000000040079bf4       0x80 drivers/mtd/built-in.o
                0x0000000040079bf4                mtd_table
 .bss.mtd_partitions
                0x0000000040079c74        0x8 drivers/mtd/built-in.o
                0x0000000040079c74                mtd_partitions
 .bss.fake_ecc_layout
                0x0000000040079c7c      0xb08 drivers/mtd/nand/built-in.o
                0x0000000040079c7c                fake_ecc_layout
 *fill*         0x000000004007a784        0x4 
 .bss.nand_info
                0x000000004007a788       0xb0 drivers/mtd/nand/built-in.o
                0x000000004007a788                nand_info
 .bss.nand_chip
                0x000000004007a838      0x128 drivers/mtd/nand/built-in.o
 .bss.total_nand_size
                0x000000004007a960        0x4 drivers/mtd/nand/built-in.o
 .bss.dev_name  0x000000004007a964        0x8 drivers/mtd/nand/built-in.o
 .bss.mtd_devs  0x000000004007a96c        0x4 drivers/mtd/ubi/built-in.o
 .bss.ubi_class
                0x000000004007a970        0x4 drivers/mtd/ubi/built-in.o
                0x000000004007a970                ubi_class
 .bss.ubi_devices
                0x000000004007a974       0x80 drivers/mtd/ubi/built-in.o
                0x000000004007a974                ubi_devices
 .bss.mtd_dev_param
                0x000000004007a9f4      0x880 drivers/mtd/ubi/built-in.o
 .bss.vidh      0x000000004007b274        0x4 drivers/mtd/ubi/built-in.o
 .bss.ech       0x000000004007b278        0x4 drivers/mtd/ubi/built-in.o
 .bss.vid_hdr.5409
                0x000000004007b27c        0x4 drivers/mtd/ubi/built-in.o
 .bss.empty_vtbl_record
                0x000000004007b280       0xac drivers/mtd/ubi/built-in.o
 .bss.serial_devices
                0x000000004007b32c        0x4 drivers/serial/built-in.o
 .bss.serial_current
                0x000000004007b330        0x4 drivers/serial/built-in.o
 .bss.curr_eth_dev
                0x000000004007b334        0x8 drivers/usb/eth/built-in.o
 *fill*         0x000000004007b33c        0x4 
 .bss.__recv_buf.5091
                0x000000004007b340      0x800 drivers/usb/eth/built-in.o
 .bss.usb_eth   0x000000004007bb40      0x1a4 drivers/usb/eth/built-in.o
 .bss.usb_max_eth_dev
                0x000000004007bce4        0x4 drivers/usb/eth/built-in.o
 .bss.periodic_schedules
                0x000000004007bce8        0x4 drivers/usb/host/built-in.o
 *fill*         0x000000004007bcec       0x14 
 .bss.ehcic     0x000000004007bd00      0x140 drivers/usb/host/built-in.o
 .bss.do_fat_read_at_block
                0x000000004007be40    0x10000 fs/built-in.o
                0x000000004007be40                do_fat_read_at_block
 .bss.get_dentfromdir_block
                0x000000004008be40    0x10000 fs/built-in.o
                0x000000004008be40                get_dentfromdir_block
 .bss.cur_part_info
                0x000000004009be40       0x50 fs/built-in.o
 *fill*         0x000000004009be90       0x30 
 .bss.get_contents_vfatname_block
                0x000000004009bec0    0x10000 fs/built-in.o
                0x000000004009bec0                get_contents_vfatname_block
 .bss.cur_dev   0x00000000400abec0        0x4 fs/built-in.o
 .bss.fs_partition
                0x00000000400abec4       0x50 fs/built-in.o
 .bss.fs_type   0x00000000400abf14        0x4 fs/built-in.o
 .bss.fs_dev_desc
                0x00000000400abf18        0x4 fs/built-in.o
 .bss.ubifs_sb  0x00000000400abf1c        0x4 fs/built-in.o
                0x00000000400abf1c                ubifs_sb
 .bss.inodes_locked_down
                0x00000000400abf20      0x100 fs/built-in.o
 .bss.ubifs_infos
                0x00000000400ac020        0x8 fs/built-in.o
                0x00000000400ac020                ubifs_infos
 .bss.ubifs_compressors
                0x00000000400ac028        0xc fs/built-in.o
                0x00000000400ac028                ubifs_compressors
 .bss.errno     0x00000000400ac034        0x4 lib/built-in.o
                0x00000000400ac034                errno
 .bss.local.4567
                0x00000000400ac038       0x18 lib/built-in.o
 .bss.NetArpWaitPacketIP
                0x00000000400ac050        0x4 net/built-in.o
                0x00000000400ac050                NetArpWaitPacketIP
 .bss.NetArpWaitTimerStart
                0x00000000400ac054        0x4 net/built-in.o
                0x00000000400ac054                NetArpWaitTimerStart
 .bss.NetArpWaitReplyIP
                0x00000000400ac058        0x4 net/built-in.o
 .bss.NetArpWaitTxPacketSize
                0x00000000400ac05c        0x4 net/built-in.o
                0x00000000400ac05c                NetArpWaitTxPacketSize
 .bss.NetArpWaitTry
                0x00000000400ac060        0x4 net/built-in.o
                0x00000000400ac060                NetArpWaitTry
 .bss.NetArpTxPacket
                0x00000000400ac064        0x4 net/built-in.o
 .bss.NetArpPacketBuf
                0x00000000400ac068      0x640 net/built-in.o
 .bss.NetArpWaitPacketMAC
                0x00000000400ac6a8        0x4 net/built-in.o
                0x00000000400ac6a8                NetArpWaitPacketMAC
 .bss.dhcp_state
                0x00000000400ac6ac        0x4 net/built-in.o
 .bss.BootpTry  0x00000000400ac6b0        0x4 net/built-in.o
                0x00000000400ac6b0                BootpTry
 .bss.NetDHCPServerIP
                0x00000000400ac6b4        0x4 net/built-in.o
 .bss.BootpID   0x00000000400ac6b8        0x4 net/built-in.o
                0x00000000400ac6b8                BootpID
 .bss.dhcp_leasetime
                0x00000000400ac6bc        0x4 net/built-in.o
 .bss.env_changed_id.4788
                0x00000000400ac6c0        0x4 net/built-in.o
 .bss.eth_current
                0x00000000400ac6c4        0x4 net/built-in.o
                0x00000000400ac6c4                eth_current
 .bss.act.4787  0x00000000400ac6c8        0x4 net/built-in.o
 .bss.index.4620
                0x00000000400ac6cc        0x4 net/built-in.o
 .bss.first_failed.4767
                0x00000000400ac6d0        0x4 net/built-in.o
 .bss.eth_devices
                0x00000000400ac6d4        0x4 net/built-in.o
 .bss.NetOurEther
                0x00000000400ac6d8        0x8 net/built-in.o
                0x00000000400ac6d8                NetOurEther
 .bss.NetServerIP
                0x00000000400ac6e0        0x4 net/built-in.o
                0x00000000400ac6e0                NetServerIP
 .bss.NetRestarted
                0x00000000400ac6e4        0x4 net/built-in.o
 .bss.net_state
                0x00000000400ac6e8        0x4 net/built-in.o
                0x00000000400ac6e8                net_state
 .bss.NetBootFileSize
                0x00000000400ac6ec        0x2 net/built-in.o
                0x00000000400ac6ec                NetBootFileSize
 *fill*         0x00000000400ac6ee        0x2 
 .bss.NetEtherNullAddr
                0x00000000400ac6f0        0x8 net/built-in.o
                0x00000000400ac6f0                NetEtherNullAddr
 .bss.NetRxPacket
                0x00000000400ac6f8        0x4 net/built-in.o
                0x00000000400ac6f8                NetRxPacket
 .bss.udp_packet_handler
                0x00000000400ac6fc        0x4 net/built-in.o
 .bss.NetRxPackets
                0x00000000400ac700       0x10 net/built-in.o
                0x00000000400ac700                NetRxPackets
 .bss.NetDevExists
                0x00000000400ac710        0x4 net/built-in.o
 .bss.timeStart
                0x00000000400ac714        0x4 net/built-in.o
 .bss.timeHandler
                0x00000000400ac718        0x4 net/built-in.o
 .bss.NetTryCount
                0x00000000400ac71c        0x4 net/built-in.o
 .bss.NetOurDNSIP
                0x00000000400ac720        0x4 net/built-in.o
                0x00000000400ac720                NetOurDNSIP
 .bss.NetOurSubnetMask
                0x00000000400ac724        0x4 net/built-in.o
                0x00000000400ac724                NetOurSubnetMask
 .bss.NetTxPacket
                0x00000000400ac728        0x4 net/built-in.o
                0x00000000400ac728                NetTxPacket
 .bss.env_changed_id.4025
                0x00000000400ac72c        0x4 net/built-in.o
 .bss.NetOurIP  0x00000000400ac730        0x4 net/built-in.o
                0x00000000400ac730                NetOurIP
 .bss.NetOurNISDomain
                0x00000000400ac734       0x20 net/built-in.o
                0x00000000400ac734                NetOurNISDomain
 .bss.NetIPID   0x00000000400ac754        0x4 net/built-in.o
                0x00000000400ac754                NetIPID
 .bss.NetOurGatewayIP
                0x00000000400ac758        0x4 net/built-in.o
                0x00000000400ac758                NetOurGatewayIP
 .bss.arp_packet_handler
                0x00000000400ac75c        0x4 net/built-in.o
 .bss.NetOurHostName
                0x00000000400ac760       0x20 net/built-in.o
                0x00000000400ac760                NetOurHostName
 .bss.NetRestartWrap
                0x00000000400ac780        0x4 net/built-in.o
                0x00000000400ac780                NetRestartWrap
 .bss.NetRxPacketLen
                0x00000000400ac784        0x4 net/built-in.o
                0x00000000400ac784                NetRxPacketLen
 .bss.BootFile  0x00000000400ac788       0x80 net/built-in.o
                0x00000000400ac788                BootFile
 .bss.timeDelta
                0x00000000400ac808        0x4 net/built-in.o
 .bss.NetServerEther
                0x00000000400ac80c        0x8 net/built-in.o
                0x00000000400ac80c                NetServerEther
 .bss.PktBuf    0x00000000400ac814     0x1e40 net/built-in.o
 .bss.NetOurRootPath
                0x00000000400ae654       0x40 net/built-in.o
                0x00000000400ae654                NetOurRootPath
 .bss.NetBootFileXferSize
                0x00000000400ae694        0x4 net/built-in.o
                0x00000000400ae694                NetBootFileXferSize
 .bss.NfsOurPort
                0x00000000400ae698        0x4 net/built-in.o
 .bss.NfsServerIP
                0x00000000400ae69c        0x4 net/built-in.o
 .bss.nfs_filename
                0x00000000400ae6a0        0x4 net/built-in.o
 .bss.nfs_len   0x00000000400ae6a4        0x4 net/built-in.o
 .bss.NfsSrvMountPort
                0x00000000400ae6a8        0x4 net/built-in.o
 .bss.dirfh     0x00000000400ae6ac       0x20 net/built-in.o
 .bss.NfsSrvNfsPort
                0x00000000400ae6cc        0x4 net/built-in.o
 .bss.rpc_id    0x00000000400ae6d0        0x4 net/built-in.o
 .bss.fs_mounted
                0x00000000400ae6d4        0x4 net/built-in.o
 .bss.nfs_path_buff
                0x00000000400ae6d8      0x800 net/built-in.o
 .bss.nfs_download_state
                0x00000000400aeed8        0x4 net/built-in.o
 .bss.nfs_path  0x00000000400aeedc        0x4 net/built-in.o
 .bss.filefh    0x00000000400aeee0       0x20 net/built-in.o
 .bss.NfsState  0x00000000400aef00        0x4 net/built-in.o
 .bss.default_filename
                0x00000000400aef04       0x50 net/built-in.o
 .bss.NfsTimeoutCount
                0x00000000400aef54        0x4 net/built-in.o
 .bss.NetPingIP
                0x00000000400aef58        0x4 net/built-in.o
                0x00000000400aef58                NetPingIP
 .bss.PingSeqNo
                0x00000000400aef5c        0x2 net/built-in.o
 *fill*         0x00000000400aef5e        0x2 
 .bss.TftpLastBlock
                0x00000000400aef60        0x4 net/built-in.o
 .bss.time_start
                0x00000000400aef64        0x4 net/built-in.o
 .bss.TftpBlock
                0x00000000400aef68        0x4 net/built-in.o
 .bss.TftpOurPort
                0x00000000400aef6c        0x4 net/built-in.o
 .bss.TftpBlockWrap
                0x00000000400aef70        0x4 net/built-in.o
 .bss.TftpRemoteIP
                0x00000000400aef74        0x4 net/built-in.o
 .bss.TftpState
                0x00000000400aef78        0x4 net/built-in.o
 .bss.TftpRemotePort
                0x00000000400aef7c        0x4 net/built-in.o
 .bss.tftp_filename
                0x00000000400aef80       0x80 net/built-in.o
 .bss.TftpTimeoutCount
                0x00000000400af000        0x4 net/built-in.o
 .bss.TftpBlockWrapOffset
                0x00000000400af004        0x4 net/built-in.o
                0x00000000400af008                . = ALIGN (0x4)
                0x00000000400af008                __bss_limit = .

.bss_end        0x00000000400af008        0x0
 *(.__bss_end)
 .__bss_end     0x00000000400af008        0x0 arch/arm/lib/built-in.o
                0x00000000400af008                __bss_end

.dynsym         0x0000000040067758       0x60
 *(.dynsym)
 .dynsym        0x0000000040067758       0x60 arch/arm/cpu/arm926ejs/start.o

.dynbss         0x00000000400677b8        0x0
 *(.dynbss)
 .dynbss        0x0000000000000000        0x0 arch/arm/cpu/arm926ejs/start.o

.dynstr         0x00000000400677b8       0x1d
 *(.dynstr*)
 .dynstr        0x00000000400677b8       0x1d arch/arm/cpu/arm926ejs/start.o

.dynamic        0x00000000400677d8       0x80
 *(.dynamic*)
 .dynamic       0x00000000400677d8       0x80 arch/arm/cpu/arm926ejs/start.o
                0x00000000400677d8                _DYNAMIC

.plt            0x0000000040067858        0x0
 *(.plt*)
 .plt           0x0000000000000000        0x0 arch/arm/cpu/arm926ejs/start.o

.interp         0x0000000040067858       0x11
 *(.interp*)
 .interp        0x0000000040067858       0x11 arch/arm/cpu/arm926ejs/start.o

.gnu            0x000000004006786c        0x0
 *(.gnu*)
 .gnu.version_d
                0x0000000000000000        0x0 arch/arm/cpu/arm926ejs/start.o
 .gnu.version   0x0000000000000000        0x0 arch/arm/cpu/arm926ejs/start.o
 .gnu.version_r
                0x0000000000000000        0x0 arch/arm/cpu/arm926ejs/start.o

.ARM.exidx
 *(.ARM.exidx*)

.gnu.linkonce.armexidx
 *(.gnu.linkonce.armexidx.*)
Address of section .text set to 0x40000100
LOAD arch/arm/cpu/arm926ejs/start.o
START GROUP
LOAD arch/arm/cpu/arm926ejs/built-in.o
LOAD arch/arm/cpu/arm926ejs/mxs/built-in.o
LOAD arch/arm/cpu/built-in.o
LOAD arch/arm/imx-common/built-in.o
LOAD arch/arm/lib/built-in.o
LOAD board/freescale/common/built-in.o
LOAD board/freescale/mx28evk/built-in.o
LOAD common/built-in.o
LOAD disk/built-in.o
LOAD drivers/built-in.o
LOAD drivers/dma/built-in.o
LOAD drivers/gpio/built-in.o
LOAD drivers/i2c/built-in.o
LOAD drivers/input/built-in.o
LOAD drivers/mmc/built-in.o
LOAD drivers/mtd/built-in.o
LOAD drivers/mtd/nand/built-in.o
LOAD drivers/mtd/onenand/built-in.o
LOAD drivers/mtd/spi/built-in.o
LOAD drivers/mtd/ubi/built-in.o
LOAD drivers/net/built-in.o
LOAD drivers/net/phy/built-in.o
LOAD drivers/pci/built-in.o
LOAD drivers/power/battery/built-in.o
LOAD drivers/power/built-in.o
LOAD drivers/power/fuel_gauge/built-in.o
LOAD drivers/power/mfd/built-in.o
LOAD drivers/power/pmic/built-in.o
LOAD drivers/serial/built-in.o
LOAD drivers/spi/built-in.o
LOAD drivers/usb/eth/built-in.o
LOAD drivers/usb/gadget/built-in.o
LOAD drivers/usb/host/built-in.o
LOAD drivers/usb/musb-new/built-in.o
LOAD drivers/usb/musb/built-in.o
LOAD drivers/usb/phy/built-in.o
LOAD drivers/usb/ulpi/built-in.o
LOAD fs/built-in.o
LOAD lib/built-in.o
LOAD lib/libfdt/built-in.o
LOAD net/built-in.o
LOAD test/built-in.o
END GROUP
LOAD /work/apron/iMX/linux/ltib/sources/u-boot-imx/arch/arm/lib/eabi_compat.o
LOAD /work/apron/buildroot/output/host/usr/lib/gcc/arm-buildroot-linux-gnueabi/4.4.7/libgcc.a
OUTPUT(u-boot elf32-littlearm)

.ARM.attributes
                0x0000000000000000       0x27
 .ARM.attributes
                0x0000000000000000       0x1b arch/arm/cpu/arm926ejs/start.o
 .ARM.attributes
                0x000000000000001b       0x2b arch/arm/cpu/arm926ejs/built-in.o
 .ARM.attributes
                0x0000000000000046       0x2b arch/arm/cpu/arm926ejs/mxs/built-in.o
 .ARM.attributes
                0x0000000000000071       0x2b arch/arm/imx-common/built-in.o
 .ARM.attributes
                0x000000000000009c       0x29 arch/arm/lib/built-in.o
 .ARM.attributes
                0x00000000000000c5       0x2b board/freescale/mx28evk/built-in.o
 .ARM.attributes
                0x00000000000000f0       0x2b common/built-in.o
 .ARM.attributes
                0x000000000000011b       0x2b disk/built-in.o
 .ARM.attributes
                0x0000000000000146       0x2b drivers/built-in.o
 .ARM.attributes
                0x0000000000000171       0x2b drivers/dma/built-in.o
 .ARM.attributes
                0x000000000000019c       0x2b drivers/gpio/built-in.o
 .ARM.attributes
                0x00000000000001c7       0x2b drivers/mtd/built-in.o
 .ARM.attributes
                0x00000000000001f2       0x2b drivers/mtd/nand/built-in.o
 .ARM.attributes
                0x000000000000021d       0x2b drivers/mtd/ubi/built-in.o
 .ARM.attributes
                0x0000000000000248       0x2b drivers/net/built-in.o
 .ARM.attributes
                0x0000000000000273       0x2b drivers/serial/built-in.o
 .ARM.attributes
                0x000000000000029e       0x2b drivers/usb/eth/built-in.o
 .ARM.attributes
                0x00000000000002c9       0x2b drivers/usb/host/built-in.o
 .ARM.attributes
                0x00000000000002f4       0x2b fs/built-in.o
 .ARM.attributes
                0x000000000000031f       0x2b lib/built-in.o
 .ARM.attributes
                0x000000000000034a       0x2b lib/libfdt/built-in.o
 .ARM.attributes
                0x0000000000000375       0x2b net/built-in.o
 .ARM.attributes
                0x00000000000003a0       0x2b /work/apron/iMX/linux/ltib/sources/u-boot-imx/arch/arm/lib/eabi_compat.o
 .ARM.attributes
                0x00000000000003cb       0x1b /work/apron/buildroot/output/host/usr/lib/gcc/arm-buildroot-linux-gnueabi/4.4.7/libgcc.a(_udivsi3.o)
 .ARM.attributes
                0x00000000000003e6       0x1b /work/apron/buildroot/output/host/usr/lib/gcc/arm-buildroot-linux-gnueabi/4.4.7/libgcc.a(_divsi3.o)
 .ARM.attributes
                0x0000000000000401       0x1b /work/apron/buildroot/output/host/usr/lib/gcc/arm-buildroot-linux-gnueabi/4.4.7/libgcc.a(_lshrdi3.o)
 .ARM.attributes
                0x000000000000041c       0x1b /work/apron/buildroot/output/host/usr/lib/gcc/arm-buildroot-linux-gnueabi/4.4.7/libgcc.a(_ashrdi3.o)
 .ARM.attributes
                0x0000000000000437       0x1b /work/apron/buildroot/output/host/usr/lib/gcc/arm-buildroot-linux-gnueabi/4.4.7/libgcc.a(_ashldi3.o)
 .ARM.attributes
                0x0000000000000452       0x1b /work/apron/buildroot/output/host/usr/lib/gcc/arm-buildroot-linux-gnueabi/4.4.7/libgcc.a(_dvmd_lnx.o)

.comment        0x0000000000000000       0x56
 .comment       0x0000000000000000       0x38 arch/arm/cpu/arm926ejs/built-in.o
                                         0x72 (size before relaxing)
 .comment       0x0000000000000000       0xe4 arch/arm/cpu/arm926ejs/mxs/built-in.o
 .comment       0x0000000000000000       0x39 arch/arm/imx-common/built-in.o
 .comment       0x0000000000000038       0x1e arch/arm/lib/built-in.o
                                        0x1ae (size before relaxing)
 .comment       0x0000000000000000       0x39 board/freescale/mx28evk/built-in.o
 .comment       0x0000000000000000      0xc78 common/built-in.o
 .comment       0x0000000000000000       0x72 disk/built-in.o
 .comment       0x0000000000000000       0xe4 drivers/built-in.o
 .comment       0x0000000000000000       0x39 drivers/dma/built-in.o
 .comment       0x0000000000000000       0x39 drivers/gpio/built-in.o
 .comment       0x0000000000000000       0x72 drivers/mtd/built-in.o
 .comment       0x0000000000000000      0x18f drivers/mtd/nand/built-in.o
 .comment       0x0000000000000000      0x292 drivers/mtd/ubi/built-in.o
 .comment       0x0000000000000000       0x39 drivers/net/built-in.o
 .comment       0x0000000000000000       0x72 drivers/serial/built-in.o
 .comment       0x0000000000000000       0xab drivers/usb/eth/built-in.o
 .comment       0x0000000000000000       0x72 drivers/usb/host/built-in.o
 .comment       0x0000000000000000      0x493 fs/built-in.o
 .comment       0x0000000000000000      0x4a2 lib/built-in.o
 .comment       0x0000000000000000      0x18f lib/libfdt/built-in.o
 .comment       0x0000000000000000      0x18f net/built-in.o
 .comment       0x0000000000000000       0x39 /work/apron/iMX/linux/ltib/sources/u-boot-imx/arch/arm/lib/eabi_compat.o

.note.GNU-stack
                0x0000000000000000        0x0
 .note.GNU-stack
                0x0000000000000000        0x0 arch/arm/cpu/arm926ejs/built-in.o
 .note.GNU-stack
                0x0000000000000000        0x0 arch/arm/cpu/arm926ejs/mxs/built-in.o
 .note.GNU-stack
                0x0000000000000000        0x0 arch/arm/imx-common/built-in.o
 .note.GNU-stack
                0x0000000000000000        0x0 arch/arm/lib/built-in.o
 .note.GNU-stack
                0x0000000000000000        0x0 board/freescale/mx28evk/built-in.o
 .note.GNU-stack
                0x0000000000000000        0x0 common/built-in.o
 .note.GNU-stack
                0x0000000000000000        0x0 disk/built-in.o
 .note.GNU-stack
                0x0000000000000000        0x0 drivers/built-in.o
 .note.GNU-stack
                0x0000000000000000        0x0 drivers/dma/built-in.o
 .note.GNU-stack
                0x0000000000000000        0x0 drivers/gpio/built-in.o
 .note.GNU-stack
                0x0000000000000000        0x0 drivers/mtd/built-in.o
 .note.GNU-stack
                0x0000000000000000        0x0 drivers/mtd/nand/built-in.o
 .note.GNU-stack
                0x0000000000000000        0x0 drivers/mtd/ubi/built-in.o
 .note.GNU-stack
                0x0000000000000000        0x0 drivers/net/built-in.o
 .note.GNU-stack
                0x0000000000000000        0x0 drivers/serial/built-in.o
 .note.GNU-stack
                0x0000000000000000        0x0 drivers/usb/eth/built-in.o
 .note.GNU-stack
                0x0000000000000000        0x0 drivers/usb/host/built-in.o
 .note.GNU-stack
                0x0000000000000000        0x0 fs/built-in.o
 .note.GNU-stack
                0x0000000000000000        0x0 lib/built-in.o
 .note.GNU-stack
                0x0000000000000000        0x0 lib/libfdt/built-in.o
 .note.GNU-stack
                0x0000000000000000        0x0 net/built-in.o
 .note.GNU-stack
                0x0000000000000000        0x0 /work/apron/iMX/linux/ltib/sources/u-boot-imx/arch/arm/lib/eabi_compat.o
 .note.GNU-stack
                0x0000000000000000        0x0 /work/apron/buildroot/output/host/usr/lib/gcc/arm-buildroot-linux-gnueabi/4.4.7/libgcc.a(_udivsi3.o)
 .note.GNU-stack
                0x0000000000000000        0x0 /work/apron/buildroot/output/host/usr/lib/gcc/arm-buildroot-linux-gnueabi/4.4.7/libgcc.a(_divsi3.o)
 .note.GNU-stack
                0x0000000000000000        0x0 /work/apron/buildroot/output/host/usr/lib/gcc/arm-buildroot-linux-gnueabi/4.4.7/libgcc.a(_lshrdi3.o)
 .note.GNU-stack
                0x0000000000000000        0x0 /work/apron/buildroot/output/host/usr/lib/gcc/arm-buildroot-linux-gnueabi/4.4.7/libgcc.a(_ashrdi3.o)
 .note.GNU-stack
                0x0000000000000000        0x0 /work/apron/buildroot/output/host/usr/lib/gcc/arm-buildroot-linux-gnueabi/4.4.7/libgcc.a(_ashldi3.o)
 .note.GNU-stack
                0x0000000000000000        0x0 /work/apron/buildroot/output/host/usr/lib/gcc/arm-buildroot-linux-gnueabi/4.4.7/libgcc.a(_dvmd_lnx.o)

.debug_line     0x0000000000000000    0x23d88
 .debug_line    0x0000000000000000       0x7e arch/arm/cpu/arm926ejs/start.o
 .debug_line    0x000000000000007e      0x290 arch/arm/cpu/arm926ejs/built-in.o
 .debug_line    0x000000000000030e      0xbd6 arch/arm/cpu/arm926ejs/mxs/built-in.o
 .debug_line    0x0000000000000ee4      0x1b4 arch/arm/imx-common/built-in.o
 .debug_line    0x0000000000001098     0x1140 arch/arm/lib/built-in.o
 .debug_line    0x00000000000021d8      0x2af board/freescale/mx28evk/built-in.o
 .debug_line    0x0000000000002487     0xaf2b common/built-in.o
 .debug_line    0x000000000000d3b2      0x571 disk/built-in.o
 .debug_line    0x000000000000d923      0x58e drivers/built-in.o
 .debug_line    0x000000000000deb1      0x460 drivers/dma/built-in.o
 .debug_line    0x000000000000e311      0x247 drivers/gpio/built-in.o
 .debug_line    0x000000000000e558      0x8f4 drivers/mtd/built-in.o
 .debug_line    0x000000000000ee4c     0x28fd drivers/mtd/nand/built-in.o
 .debug_line    0x0000000000011749     0x3ce2 drivers/mtd/ubi/built-in.o
 .debug_line    0x000000000001542b      0x5ff drivers/net/built-in.o
 .debug_line    0x0000000000015a2a      0x586 drivers/serial/built-in.o
 .debug_line    0x0000000000015fb0      0xabe drivers/usb/eth/built-in.o
 .debug_line    0x0000000000016a6e      0x91e drivers/usb/host/built-in.o
 .debug_line    0x000000000001738c     0x5fdc fs/built-in.o
 .debug_line    0x000000000001d368     0x336e lib/built-in.o
 .debug_line    0x00000000000206d6     0x154a lib/libfdt/built-in.o
 .debug_line    0x0000000000021c20     0x1d82 net/built-in.o
 .debug_line    0x00000000000239a2      0x134 /work/apron/iMX/linux/ltib/sources/u-boot-imx/arch/arm/lib/eabi_compat.o
 .debug_line    0x0000000000023ad6       0x87 /work/apron/buildroot/output/host/usr/lib/gcc/arm-buildroot-linux-gnueabi/4.4.7/libgcc.a(_udivsi3.o)
 .debug_line    0x0000000000023b5d       0x93 /work/apron/buildroot/output/host/usr/lib/gcc/arm-buildroot-linux-gnueabi/4.4.7/libgcc.a(_divsi3.o)
 .debug_line    0x0000000000023bf0       0x66 /work/apron/buildroot/output/host/usr/lib/gcc/arm-buildroot-linux-gnueabi/4.4.7/libgcc.a(_lshrdi3.o)
 .debug_line    0x0000000000023c56       0x66 /work/apron/buildroot/output/host/usr/lib/gcc/arm-buildroot-linux-gnueabi/4.4.7/libgcc.a(_ashrdi3.o)
 .debug_line    0x0000000000023cbc       0x66 /work/apron/buildroot/output/host/usr/lib/gcc/arm-buildroot-linux-gnueabi/4.4.7/libgcc.a(_ashldi3.o)
 .debug_line    0x0000000000023d22       0x66 /work/apron/buildroot/output/host/usr/lib/gcc/arm-buildroot-linux-gnueabi/4.4.7/libgcc.a(_dvmd_lnx.o)

.debug_info     0x0000000000000000    0xc8494
 .debug_info    0x0000000000000000       0x73 arch/arm/cpu/arm926ejs/start.o
 .debug_info    0x0000000000000073      0x777 arch/arm/cpu/arm926ejs/built-in.o
 .debug_info    0x00000000000007ea     0x7e5b arch/arm/cpu/arm926ejs/mxs/built-in.o
 .debug_info    0x0000000000008645      0x489 arch/arm/imx-common/built-in.o
 .debug_info    0x0000000000008ace     0x3ef5 arch/arm/lib/built-in.o
 .debug_info    0x000000000000c9c3     0x1213 board/freescale/mx28evk/built-in.o
 .debug_info    0x000000000000dbd6    0x3039d common/built-in.o
 .debug_info    0x000000000003df73     0x15b2 disk/built-in.o
 .debug_info    0x000000000003f525     0x14c2 drivers/built-in.o
 .debug_info    0x00000000000409e7     0x4767 drivers/dma/built-in.o
 .debug_info    0x000000000004514e      0x5ff drivers/gpio/built-in.o
 .debug_info    0x000000000004574d     0x283b drivers/mtd/built-in.o
 .debug_info    0x0000000000047f88     0xdcb0 drivers/mtd/nand/built-in.o
 .debug_info    0x0000000000055c38    0x150a3 drivers/mtd/ubi/built-in.o
 .debug_info    0x000000000006acdb     0x2714 drivers/net/built-in.o
 .debug_info    0x000000000006d3ef     0x14b5 drivers/serial/built-in.o
 .debug_info    0x000000000006e8a4     0x359c drivers/usb/eth/built-in.o
 .debug_info    0x0000000000071e40     0x27ab drivers/usb/host/built-in.o
 .debug_info    0x00000000000745eb    0x3fe45 fs/built-in.o
 .debug_info    0x00000000000b4430     0x8e82 lib/built-in.o
 .debug_info    0x00000000000bd2b2     0x41bc lib/libfdt/built-in.o
 .debug_info    0x00000000000c146e     0x68ce net/built-in.o
 .debug_info    0x00000000000c7d3c      0x30e /work/apron/iMX/linux/ltib/sources/u-boot-imx/arch/arm/lib/eabi_compat.o
 .debug_info    0x00000000000c804a       0xb7 /work/apron/buildroot/output/host/usr/lib/gcc/arm-buildroot-linux-gnueabi/4.4.7/libgcc.a(_udivsi3.o)
 .debug_info    0x00000000000c8101       0xb7 /work/apron/buildroot/output/host/usr/lib/gcc/arm-buildroot-linux-gnueabi/4.4.7/libgcc.a(_divsi3.o)
 .debug_info    0x00000000000c81b8       0xb7 /work/apron/buildroot/output/host/usr/lib/gcc/arm-buildroot-linux-gnueabi/4.4.7/libgcc.a(_lshrdi3.o)
 .debug_info    0x00000000000c826f       0xb7 /work/apron/buildroot/output/host/usr/lib/gcc/arm-buildroot-linux-gnueabi/4.4.7/libgcc.a(_ashrdi3.o)
 .debug_info    0x00000000000c8326       0xb7 /work/apron/buildroot/output/host/usr/lib/gcc/arm-buildroot-linux-gnueabi/4.4.7/libgcc.a(_ashldi3.o)
 .debug_info    0x00000000000c83dd       0xb7 /work/apron/buildroot/output/host/usr/lib/gcc/arm-buildroot-linux-gnueabi/4.4.7/libgcc.a(_dvmd_lnx.o)

.debug_abbrev   0x0000000000000000    0x1b79b
 .debug_abbrev  0x0000000000000000       0x14 arch/arm/cpu/arm926ejs/start.o
 .debug_abbrev  0x0000000000000014      0x2e6 arch/arm/cpu/arm926ejs/built-in.o
 .debug_abbrev  0x00000000000002fa      0xb45 arch/arm/cpu/arm926ejs/mxs/built-in.o
 .debug_abbrev  0x0000000000000e3f      0x177 arch/arm/imx-common/built-in.o
 .debug_abbrev  0x0000000000000fb6      0xf56 arch/arm/lib/built-in.o
 .debug_abbrev  0x0000000000001f0c      0x1f4 board/freescale/mx28evk/built-in.o
 .debug_abbrev  0x0000000000002100     0x8bc3 common/built-in.o
 .debug_abbrev  0x000000000000acc3      0x544 disk/built-in.o
 .debug_abbrev  0x000000000000b207      0x4ec drivers/built-in.o
 .debug_abbrev  0x000000000000b6f3      0x400 drivers/dma/built-in.o
 .debug_abbrev  0x000000000000baf3      0x1e3 drivers/gpio/built-in.o
 .debug_abbrev  0x000000000000bcd6      0x64d drivers/mtd/built-in.o
 .debug_abbrev  0x000000000000c323     0x165a drivers/mtd/nand/built-in.o
 .debug_abbrev  0x000000000000d97d     0x26df drivers/mtd/ubi/built-in.o
 .debug_abbrev  0x000000000001005c      0x42f drivers/net/built-in.o
 .debug_abbrev  0x000000000001048b      0x571 drivers/serial/built-in.o
 .debug_abbrev  0x00000000000109fc      0x951 drivers/usb/eth/built-in.o
 .debug_abbrev  0x000000000001134d      0x670 drivers/usb/host/built-in.o
 .debug_abbrev  0x00000000000119bd     0x4db2 fs/built-in.o
 .debug_abbrev  0x000000000001676f     0x299a lib/built-in.o
 .debug_abbrev  0x0000000000019109      0xcf3 lib/libfdt/built-in.o
 .debug_abbrev  0x0000000000019dfc     0x1806 net/built-in.o
 .debug_abbrev  0x000000000001b602      0x121 /work/apron/iMX/linux/ltib/sources/u-boot-imx/arch/arm/lib/eabi_compat.o
 .debug_abbrev  0x000000000001b723       0x14 /work/apron/buildroot/output/host/usr/lib/gcc/arm-buildroot-linux-gnueabi/4.4.7/libgcc.a(_udivsi3.o)
 .debug_abbrev  0x000000000001b737       0x14 /work/apron/buildroot/output/host/usr/lib/gcc/arm-buildroot-linux-gnueabi/4.4.7/libgcc.a(_divsi3.o)
 .debug_abbrev  0x000000000001b74b       0x14 /work/apron/buildroot/output/host/usr/lib/gcc/arm-buildroot-linux-gnueabi/4.4.7/libgcc.a(_lshrdi3.o)
 .debug_abbrev  0x000000000001b75f       0x14 /work/apron/buildroot/output/host/usr/lib/gcc/arm-buildroot-linux-gnueabi/4.4.7/libgcc.a(_ashrdi3.o)
 .debug_abbrev  0x000000000001b773       0x14 /work/apron/buildroot/output/host/usr/lib/gcc/arm-buildroot-linux-gnueabi/4.4.7/libgcc.a(_ashldi3.o)
 .debug_abbrev  0x000000000001b787       0x14 /work/apron/buildroot/output/host/usr/lib/gcc/arm-buildroot-linux-gnueabi/4.4.7/libgcc.a(_dvmd_lnx.o)

.debug_aranges  0x0000000000000000     0x38f8
 .debug_aranges
                0x0000000000000000       0x20 arch/arm/cpu/arm926ejs/start.o
 .debug_aranges
                0x0000000000000020       0x68 arch/arm/cpu/arm926ejs/built-in.o
 .debug_aranges
                0x0000000000000088      0x138 arch/arm/cpu/arm926ejs/mxs/built-in.o
 .debug_aranges
                0x00000000000001c0       0x30 arch/arm/imx-common/built-in.o
 .debug_aranges
                0x00000000000001f0      0x2a8 arch/arm/lib/built-in.o
 .debug_aranges
                0x0000000000000498       0x38 board/freescale/mx28evk/built-in.o
 .debug_aranges
                0x00000000000004d0     0x1210 common/built-in.o
 .debug_aranges
                0x00000000000016e0       0x98 disk/built-in.o
 .debug_aranges
                0x0000000000001778       0x68 drivers/built-in.o
 .debug_aranges
                0x00000000000017e0       0x68 drivers/dma/built-in.o
 .debug_aranges
                0x0000000000001848       0x50 drivers/gpio/built-in.o
 .debug_aranges
                0x0000000000001898      0x168 drivers/mtd/built-in.o
 .debug_aranges
                0x0000000000001a00      0x3c8 drivers/mtd/nand/built-in.o
 .debug_aranges
                0x0000000000001dc8      0x3d8 drivers/mtd/ubi/built-in.o
 .debug_aranges
                0x00000000000021a0       0x88 drivers/net/built-in.o
 .debug_aranges
                0x0000000000002228       0xe0 drivers/serial/built-in.o
 .debug_aranges
                0x0000000000002308      0x128 drivers/usb/eth/built-in.o
 .debug_aranges
                0x0000000000002430       0xd8 drivers/usb/host/built-in.o
 .debug_aranges
                0x0000000000002508      0x700 fs/built-in.o
 .debug_aranges
                0x0000000000002c08      0x5d0 lib/built-in.o
 .debug_aranges
                0x00000000000031d8      0x2e0 lib/libfdt/built-in.o
 .debug_aranges
                0x00000000000034b8      0x350 net/built-in.o
 .debug_aranges
                0x0000000000003808       0x30 /work/apron/iMX/linux/ltib/sources/u-boot-imx/arch/arm/lib/eabi_compat.o
 .debug_aranges
                0x0000000000003838       0x20 /work/apron/buildroot/output/host/usr/lib/gcc/arm-buildroot-linux-gnueabi/4.4.7/libgcc.a(_udivsi3.o)
 .debug_aranges
                0x0000000000003858       0x20 /work/apron/buildroot/output/host/usr/lib/gcc/arm-buildroot-linux-gnueabi/4.4.7/libgcc.a(_divsi3.o)
 .debug_aranges
                0x0000000000003878       0x20 /work/apron/buildroot/output/host/usr/lib/gcc/arm-buildroot-linux-gnueabi/4.4.7/libgcc.a(_lshrdi3.o)
 .debug_aranges
                0x0000000000003898       0x20 /work/apron/buildroot/output/host/usr/lib/gcc/arm-buildroot-linux-gnueabi/4.4.7/libgcc.a(_ashrdi3.o)
 .debug_aranges
                0x00000000000038b8       0x20 /work/apron/buildroot/output/host/usr/lib/gcc/arm-buildroot-linux-gnueabi/4.4.7/libgcc.a(_ashldi3.o)
 .debug_aranges
                0x00000000000038d8       0x20 /work/apron/buildroot/output/host/usr/lib/gcc/arm-buildroot-linux-gnueabi/4.4.7/libgcc.a(_dvmd_lnx.o)

.debug_pubnames
                0x0000000000000000     0x5d5d
 .debug_pubnames
                0x0000000000000000       0xc6 arch/arm/cpu/arm926ejs/built-in.o
 .debug_pubnames
                0x00000000000000c6      0x251 arch/arm/cpu/arm926ejs/mxs/built-in.o
 .debug_pubnames
                0x0000000000000317       0x52 arch/arm/imx-common/built-in.o
 .debug_pubnames
                0x0000000000000369      0x52a arch/arm/lib/built-in.o
 .debug_pubnames
                0x0000000000000893       0x60 board/freescale/mx28evk/built-in.o
 .debug_pubnames
                0x00000000000008f3     0x2117 common/built-in.o
 .debug_pubnames
                0x0000000000002a0a       0xe5 disk/built-in.o
 .debug_pubnames
                0x0000000000002aef       0x85 drivers/built-in.o
 .debug_pubnames
                0x0000000000002b74       0xec drivers/dma/built-in.o
 .debug_pubnames
                0x0000000000002c60       0x9c drivers/gpio/built-in.o
 .debug_pubnames
                0x0000000000002cfc      0x223 drivers/mtd/built-in.o
 .debug_pubnames
                0x0000000000002f1f      0x2d0 drivers/mtd/nand/built-in.o
 .debug_pubnames
                0x00000000000031ef      0x673 drivers/mtd/ubi/built-in.o
 .debug_pubnames
                0x0000000000003862       0x8c drivers/net/built-in.o
 .debug_pubnames
                0x00000000000038ee      0x17f drivers/serial/built-in.o
 .debug_pubnames
                0x0000000000003a6d       0xf9 drivers/usb/eth/built-in.o
 .debug_pubnames
                0x0000000000003b66      0x16c drivers/usb/host/built-in.o
 .debug_pubnames
                0x0000000000003cd2      0xb43 fs/built-in.o
 .debug_pubnames
                0x0000000000004815      0x811 lib/built-in.o
 .debug_pubnames
                0x0000000000005026      0x5d1 lib/libfdt/built-in.o
 .debug_pubnames
                0x00000000000055f7      0x714 net/built-in.o
 .debug_pubnames
                0x0000000000005d0b       0x52 /work/apron/iMX/linux/ltib/sources/u-boot-imx/arch/arm/lib/eabi_compat.o

.debug_frame    0x0000000000000000     0xb634
 .debug_frame   0x0000000000000000       0x9c arch/arm/cpu/arm926ejs/built-in.o
 .debug_frame   0x000000000000009c      0x320 arch/arm/cpu/arm926ejs/mxs/built-in.o
 .debug_frame   0x00000000000003bc       0x70 arch/arm/imx-common/built-in.o
 .debug_frame   0x000000000000042c      0x574 arch/arm/lib/built-in.o
 .debug_frame   0x00000000000009a0       0x6c board/freescale/mx28evk/built-in.o
 .debug_frame   0x0000000000000a0c     0x3a6c common/built-in.o
 .debug_frame   0x0000000000004478      0x210 disk/built-in.o
 .debug_frame   0x0000000000004688      0x104 drivers/built-in.o
 .debug_frame   0x000000000000478c      0x11c drivers/dma/built-in.o
 .debug_frame   0x00000000000048a8       0x8c drivers/gpio/built-in.o
 .debug_frame   0x0000000000004934      0x514 drivers/mtd/built-in.o
 .debug_frame   0x0000000000004e48      0xf74 drivers/mtd/nand/built-in.o
 .debug_frame   0x0000000000005dbc      0xe04 drivers/mtd/ubi/built-in.o
 .debug_frame   0x0000000000006bc0      0x1c4 drivers/net/built-in.o
 .debug_frame   0x0000000000006d84      0x24c drivers/serial/built-in.o
 .debug_frame   0x0000000000006fd0      0x418 drivers/usb/eth/built-in.o
 .debug_frame   0x00000000000073e8      0x2f4 drivers/usb/host/built-in.o
 .debug_frame   0x00000000000076dc     0x1914 fs/built-in.o
 .debug_frame   0x0000000000008ff0      0xf84 lib/built-in.o
 .debug_frame   0x0000000000009f74      0xb1c lib/libfdt/built-in.o
 .debug_frame   0x000000000000aa90      0xb08 net/built-in.o
 .debug_frame   0x000000000000b598       0x4c /work/apron/iMX/linux/ltib/sources/u-boot-imx/arch/arm/lib/eabi_compat.o
 .debug_frame   0x000000000000b5e4       0x28 /work/apron/buildroot/output/host/usr/lib/gcc/arm-buildroot-linux-gnueabi/4.4.7/libgcc.a(_udivsi3.o)
 .debug_frame   0x000000000000b60c       0x28 /work/apron/buildroot/output/host/usr/lib/gcc/arm-buildroot-linux-gnueabi/4.4.7/libgcc.a(_divsi3.o)

.debug_str      0x0000000000000000    0x1a818
 .debug_str     0x0000000000000000      0x206 arch/arm/cpu/arm926ejs/built-in.o
                                        0x4c7 (size before relaxing)
 .debug_str     0x0000000000000206     0x5616 arch/arm/cpu/arm926ejs/mxs/built-in.o
                                       0x70b6 (size before relaxing)
 .debug_str     0x000000000000581c       0x76 arch/arm/imx-common/built-in.o
                                        0x284 (size before relaxing)
 .debug_str     0x0000000000005892     0x12fb arch/arm/lib/built-in.o
                                       0x326a (size before relaxing)
 .debug_str     0x0000000000006b8d       0x93 board/freescale/mx28evk/built-in.o
                                        0xfad (size before relaxing)
 .debug_str     0x0000000000006c20     0x6cbe common/built-in.o
                                      0x1964a (size before relaxing)
 .debug_str     0x000000000000d8de      0x298 disk/built-in.o
                                        0x9a9 (size before relaxing)
 .debug_str     0x000000000000db76      0x10e drivers/built-in.o
                                        0xf47 (size before relaxing)
 .debug_str     0x000000000000dc84     0x3a7c drivers/dma/built-in.o
                                       0x3d98 (size before relaxing)
 .debug_str     0x0000000000011700       0xb4 drivers/gpio/built-in.o
                                        0x2e8 (size before relaxing)
 .debug_str     0x00000000000117b4      0x38b drivers/mtd/built-in.o
                                        0xf1b (size before relaxing)
 .debug_str     0x0000000000011b3f     0x1f9e drivers/mtd/nand/built-in.o
                                       0x5d3a (size before relaxing)
 .debug_str     0x0000000000013add      0xe34 drivers/mtd/ubi/built-in.o
                                       0x82f7 (size before relaxing)
 .debug_str     0x0000000000014911      0x77c drivers/net/built-in.o
                                        0xe4a (size before relaxing)
 .debug_str     0x000000000001508d      0x276 drivers/serial/built-in.o
                                        0x9f2 (size before relaxing)
 .debug_str     0x0000000000015303      0x5b9 drivers/usb/eth/built-in.o
                                       0x1a68 (size before relaxing)
 .debug_str     0x00000000000158bc      0x8a8 drivers/usb/host/built-in.o
                                       0x14ae (size before relaxing)
 .debug_str     0x0000000000016164     0x2065 fs/built-in.o
                                      0x1c099 (size before relaxing)
 .debug_str     0x00000000000181c9      0xcb6 lib/built-in.o
                                       0x424a (size before relaxing)
 .debug_str     0x0000000000018e7f      0x904 lib/libfdt/built-in.o
                                       0x16d0 (size before relaxing)
 .debug_str     0x0000000000019783     0x104c net/built-in.o
                                       0x4629 (size before relaxing)
 .debug_str     0x000000000001a7cf       0x49 /work/apron/iMX/linux/ltib/sources/u-boot-imx/arch/arm/lib/eabi_compat.o
                                        0x247 (size before relaxing)

.debug_loc      0x0000000000000000    0x3c243
 .debug_loc     0x0000000000000000       0x32 arch/arm/cpu/arm926ejs/built-in.o
 .debug_loc     0x0000000000000032      0x955 arch/arm/cpu/arm926ejs/mxs/built-in.o
 .debug_loc     0x0000000000000987      0x160 arch/arm/imx-common/built-in.o
 .debug_loc     0x0000000000000ae7      0xa10 arch/arm/lib/built-in.o
 .debug_loc     0x00000000000014f7       0x7a board/freescale/mx28evk/built-in.o
 .debug_loc     0x0000000000001571    0x1445c common/built-in.o
 .debug_loc     0x00000000000159cd      0x870 disk/built-in.o
 .debug_loc     0x000000000001623d      0x274 drivers/built-in.o
 .debug_loc     0x00000000000164b1      0x756 drivers/dma/built-in.o
 .debug_loc     0x0000000000016c07       0xc2 drivers/gpio/built-in.o
 .debug_loc     0x0000000000016cc9     0x1555 drivers/mtd/built-in.o
 .debug_loc     0x000000000001821e     0x55c4 drivers/mtd/nand/built-in.o
 .debug_loc     0x000000000001d7e2     0x5bf8 drivers/mtd/ubi/built-in.o
 .debug_loc     0x00000000000233da      0xa92 drivers/net/built-in.o
 .debug_loc     0x0000000000023e6c      0x381 drivers/serial/built-in.o
 .debug_loc     0x00000000000241ed     0x11a1 drivers/usb/eth/built-in.o
 .debug_loc     0x000000000002538e     0x1165 drivers/usb/host/built-in.o
 .debug_loc     0x00000000000264f3     0xa9a0 fs/built-in.o
 .debug_loc     0x0000000000030e93     0x5c29 lib/built-in.o
 .debug_loc     0x0000000000036abc     0x32c1 lib/libfdt/built-in.o
 .debug_loc     0x0000000000039d7d     0x2489 net/built-in.o
 .debug_loc     0x000000000003c206       0x3d /work/apron/iMX/linux/ltib/sources/u-boot-imx/arch/arm/lib/eabi_compat.o

.debug_ranges   0x0000000000000000     0xc9d8
 .debug_ranges  0x0000000000000000       0x58 arch/arm/cpu/arm926ejs/built-in.o
 .debug_ranges  0x0000000000000058      0x380 arch/arm/cpu/arm926ejs/mxs/built-in.o
 .debug_ranges  0x00000000000003d8       0x70 arch/arm/imx-common/built-in.o
 .debug_ranges  0x0000000000000448      0x440 arch/arm/lib/built-in.o
 .debug_ranges  0x0000000000000888       0x30 board/freescale/mx28evk/built-in.o
 .debug_ranges  0x00000000000008b8     0x32d0 common/built-in.o
 .debug_ranges  0x0000000000003b88      0x158 disk/built-in.o
 .debug_ranges  0x0000000000003ce0       0x88 drivers/built-in.o
 .debug_ranges  0x0000000000003d68      0x540 drivers/dma/built-in.o
 .debug_ranges  0x00000000000042a8       0x78 drivers/gpio/built-in.o
 .debug_ranges  0x0000000000004320      0x310 drivers/mtd/built-in.o
 .debug_ranges  0x0000000000004630      0xd48 drivers/mtd/nand/built-in.o
 .debug_ranges  0x0000000000005378     0x1460 drivers/mtd/ubi/built-in.o
 .debug_ranges  0x00000000000067d8      0x500 drivers/net/built-in.o
 .debug_ranges  0x0000000000006cd8      0x110 drivers/serial/built-in.o
 .debug_ranges  0x0000000000006de8      0x4e0 drivers/usb/eth/built-in.o
 .debug_ranges  0x00000000000072c8      0x1a0 drivers/usb/host/built-in.o
 .debug_ranges  0x0000000000007468     0x2bc0 fs/built-in.o
 .debug_ranges  0x000000000000a028      0xf98 lib/built-in.o
 .debug_ranges  0x000000000000afc0      0xf50 lib/libfdt/built-in.o
 .debug_ranges  0x000000000000bf10      0xaa0 net/built-in.o
 .debug_ranges  0x000000000000c9b0       0x28 /work/apron/iMX/linux/ltib/sources/u-boot-imx/arch/arm/lib/eabi_compat.o
